
test:     file format elf64-x86-64

Contents of section .interp:
 400238 2f6c6962 36342f6c 642d6c69 6e75782d  /lib64/ld-linux-
 400248 7838362d 36342e73 6f2e3200           x86-64.so.2.    
Contents of section .note.ABI-tag:
 400254 04000000 10000000 01000000 474e5500  ............GNU.
 400264 00000000 02000000 06000000 18000000  ................
Contents of section .note.gnu.build-id:
 400274 04000000 14000000 03000000 474e5500  ............GNU.
 400284 230e8736 111b90eb 30875528 9f08c865  #..6....0.U(...e
 400294 119eee57                             ...W            
Contents of section .gnu.hash:
 400298 03000000 09000000 01000000 06000000  ................
 4002a8 88011000 00410000 09000000 0a000000  .....A..........
 4002b8 0b000000 c9810ad2 ef103f9e 2945d54c  ..........?.)E.L
Contents of section .dynsym:
 4002c8 00000000 00000000 00000000 00000000  ................
 4002d8 00000000 00000000 24000000 20000000  ........$... ...
 4002e8 00000000 00000000 00000000 00000000  ................
 4002f8 01000000 20000000 00000000 00000000  .... ...........
 400308 00000000 00000000 b9000000 12000000  ................
 400318 00000000 00000000 00000000 00000000  ................
 400328 ca000000 12000000 00000000 00000000  ................
 400338 00000000 00000000 a1000000 12000000  ................
 400348 00000000 00000000 00000000 00000000  ................
 400358 e4000000 12000000 00000000 00000000  ................
 400368 00000000 00000000 d7000000 12000000  ................
 400378 00000000 00000000 00000000 00000000  ................
 400388 71000000 12000000 00000000 00000000  q...............
 400398 00000000 00000000 4b000000 21001a00  ........K...!...
 4003a8 60106000 00000000 58000000 00000000  `.`.....X.......
 4003b8 77000000 21001a00 c0106000 00000000  w...!.....`.....
 4003c8 58000000 00000000 33000000 12000000  X.......3.......
 4003d8 30074000 00000000 00000000 00000000  0.@.............
Contents of section .dynstr:
 4003e8 005f4a76 5f526567 69737465 72436c61  ._Jv_RegisterCla
 4003f8 73736573 006c6962 73746463 2b2b2e73  sses.libstdc++.s
 400408 6f2e3600 5f5f676d 6f6e5f73 74617274  o.6.__gmon_start
 400418 5f5f005f 5a4e5374 38696f73 5f626173  __._ZNSt8ios_bas
 400428 6534496e 69744431 4576005f 5a54564e  e4InitD1Ev._ZTVN
 400438 31305f5f 63787861 62697631 31375f5f  10__cxxabiv117__
 400448 636c6173 735f7479 70655f69 6e666f45  class_type_infoE
 400458 005f5a6e 776d005f 5a54564e 31305f5f  ._Znwm._ZTVN10__
 400468 63787861 62697631 32315f5f 766d695f  cxxabiv121__vmi_
 400478 636c6173 735f7479 70655f69 6e666f45  class_type_infoE
 400488 005f5a4e 53743869 6f735f62 61736534  ._ZNSt8ios_base4
 400498 496e6974 43314576 005f5a64 6c507600  InitC1Ev._ZdlPv.
 4004a8 6c696263 2e736f2e 36005f5f 7072696e  libc.so.6.__prin
 4004b8 74665f63 686b005f 5f637861 5f617465  tf_chk.__cxa_ate
 4004c8 78697400 5f5f6c69 62635f73 74617274  xit.__libc_start
 4004d8 5f6d6169 6e00474c 4942435f 322e322e  _main.GLIBC_2.2.
 4004e8 3500474c 4942435f 322e332e 34004358  5.GLIBC_2.3.4.CX
 4004f8 58414249 5f312e33 00474c49 42435858  XABI_1.3.GLIBCXX
 400508 5f332e34 00                          _3.4.           
Contents of section .gnu.version:
 40050e 00000000 00000200 03000200 04000400  ................
 40051e 02000500 05000200                    ........        
Contents of section .gnu.version_r:
 400528 01000200 c0000000 10000000 30000000  ............0...
 400538 751a6909 00000400 f6000000 10000000  u.i.............
 400548 74196909 00000300 02010000 00000000  t.i.............
 400558 01000200 15000000 10000000 00000000  ................
 400568 d3af6b05 00000500 0e010000 10000000  ..k.............
 400578 74299208 00000200 19010000 00000000  t)..............
Contents of section .rela.dyn:
 400588 e00f6000 00000000 06000000 01000000  ..`.............
 400598 00000000 00000000 60106000 00000000  ........`.`.....
 4005a8 05000000 09000000 00000000 00000000  ................
 4005b8 c0106000 00000000 05000000 0a000000  ..`.............
 4005c8 00000000 00000000                    ........        
Contents of section .rela.plt:
 4005d0 00106000 00000000 07000000 01000000  ..`.............
 4005e0 00000000 00000000 08106000 00000000  ..........`.....
 4005f0 07000000 03000000 00000000 00000000  ................
 400600 10106000 00000000 07000000 04000000  ..`.............
 400610 00000000 00000000 18106000 00000000  ..........`.....
 400620 07000000 05000000 00000000 00000000  ................
 400630 20106000 00000000 07000000 06000000   .`.............
 400640 00000000 00000000 28106000 00000000  ........(.`.....
 400650 07000000 07000000 00000000 00000000  ................
 400660 30106000 00000000 07000000 0b000000  0.`.............
 400670 00000000 00000000 38106000 00000000  ........8.`.....
 400680 07000000 08000000 00000000 00000000  ................
Contents of section .init:
 400690 4883ec08 488b0545 09200048 85c07405  H...H..E. .H..t.
 4006a0 e82b0000 00e8c601 0000e821 03000048  .+.........!...H
 4006b0 83c408c3                             ....            
Contents of section .plt:
 4006c0 ff352a09 2000ff25 2c092000 0f1f4000  .5*. ..%,. ...@.
 4006d0 ff252a09 20006800 000000e9 e0ffffff  .%*. .h.........
 4006e0 ff252209 20006801 000000e9 d0ffffff  .%". .h.........
 4006f0 ff251a09 20006802 000000e9 c0ffffff  .%.. .h.........
 400700 ff251209 20006803 000000e9 b0ffffff  .%.. .h.........
 400710 ff250a09 20006804 000000e9 a0ffffff  .%.. .h.........
 400720 ff250209 20006805 000000e9 90ffffff  .%.. .h.........
 400730 ff25fa08 20006806 000000e9 80ffffff  .%.. .h.........
 400740 ff25f208 20006807 000000e9 70ffffff  .%.. .h.....p...
Contents of section .text:
 400750 4883ec08 bf200000 00e8e2ff ffff488d  H.... ........H.
 400760 4810c740 08000000 00c74018 00000000  H..@......@.....
 400770 48c70090 0a400048 c74010b0 0a400049  H....@.H.@...@.I
 400780 89c04889 c2be240a 4000bf01 00000031  ..H...$.@......1
 400790 c0e85aff ffff31c0 4883c408 c30f1f00  ..Z...1.H.......
 4007a0 4883ec08 bf281160 00e852ff ffffba48  H....(.`..R....H
 4007b0 106000be 28116000 bf300740 004883c4  .`..(.`..0.@.H..
 4007c0 08e95aff ffff9090 31ed4989 d15e4889  ..Z.....1.I..^H.
 4007d0 e24883e4 f0505449 c7c0c009 400048c7  .H...PTI....@.H.
 4007e0 c1300940 0048c7c7 50074000 e81fffff  .0.@.H..P.@.....
 4007f0 fff46690 90909090 90909090 90909090  ..f.............
 400800 554889e5 534883ec 08803d08 09200000  UH..SH....=.. ..
 400810 754bbb10 0e600048 8b050209 20004881  uK...`.H.... .H.
 400820 eb080e60 0048c1fb 034883eb 014839d8  ...`.H...H...H9.
 400830 7324660f 1f440000 4883c001 488905dd  s$f..D..H...H...
 400840 082000ff 14c5080e 6000488b 05cf0820  . ......`.H.... 
 400850 004839d8 72e2c605 bb082000 014883c4  .H9.r..... ..H..
 400860 085b5dc3 6666662e 0f1f8400 00000000  .[].fff.........
 400870 48833da0 05200000 554889e5 7412b800  H.=.. ..UH..t...
 400880 00000048 85c07408 5dbf180e 6000ffe0  ...H..t.]...`...
 400890 5dc39090 90909090 90909090 90909090  ]...............
 4008a0 48c70750 0a4000c3 90909090 90909090  H..P.@..........
 4008b0 48c70770 0a4000c3 90909090 90909090  H..p.@..........
 4008c0 4883ef10 e9070000 00909090 90909090  H...............
 4008d0 48c74710 700a4000 48c70750 0a4000c3  H.G.p.@.H..P.@..
 4008e0 4883ef10 eb0a662e 0f1f8400 00000000  H.....f.........
 4008f0 48c74710 700a4000 48c70750 0a4000e9  H.G.p.@.H..P.@..
 400900 dcfdffff 90909090 90909090 90909090  ................
 400910 48c70770 0a4000e9 c4fdffff 90909090  H..p.@..........
 400920 48c70750 0a4000e9 b4fdffff 90909090  H..P.@..........
 400930 48896c24 d84c8964 24e0488d 2db70420  H.l$.L.d$.H.-.. 
 400940 004c8d25 a8042000 48895c24 d04c896c  .L.%.. .H.\$.L.l
 400950 24e84c89 7424f04c 897c24f8 4883ec38  $.L.t$.L.|$.H..8
 400960 4c29e541 89ff4989 f648c1fd 034989d5  L).A..I..H...I..
 400970 31dbe819 fdffff48 85ed741a 0f1f4000  1......H..t...@.
 400980 4c89ea4c 89f64489 ff41ff14 dc4883c3  L..L..D..A...H..
 400990 014839eb 75ea488b 5c240848 8b6c2410  .H9.u.H.\$.H.l$.
 4009a0 4c8b6424 184c8b6c 24204c8b 7424284c  L.d$.L.l$ L.t$(L
 4009b0 8b7c2430 4883c438 c30f1f80 00000000  .|$0H..8........
 4009c0 f3c39090 90909090 90909090 90909090  ................
 4009d0 554889e5 534883ec 08488b05 18042000  UH..SH...H.... .
 4009e0 4883f8ff 7419bbf8 0d60000f 1f440000  H...t....`...D..
 4009f0 4883eb08 ffd0488b 034883f8 ff75f148  H.....H..H...u.H
 400a00 83c4085b 5dc39090                    ...[]...        
Contents of section .fini:
 400a08 4883ec08 e8effdff ff4883c4 08c3      H........H....  
Contents of section .rodata:
 400a20 01000200 61203d20 25303878 2062203d  ....a = %08x b =
 400a30 20253038 78206320 3d202530 38780a00   %08x c = %08x..
 400a40 00000000 00000000 c00a4000 00000000  ..........@.....
 400a50 a0084000 00000000 20094000 00000000  ..@..... .@.....
 400a60 00000000 00000000 d00a4000 00000000  ..........@.....
 400a70 b0084000 00000000 10094000 00000000  ..@.......@.....
 400a80 00000000 00000000 e00a4000 00000000  ..........@.....
 400a90 d0084000 00000000 f0084000 00000000  ..@.......@.....
 400aa0 f0ffffff ffffffff e00a4000 00000000  ..........@.....
 400ab0 c0084000 00000000 e0084000 00000000  ..@.......@.....
 400ac0 70106000 00000000 180b4000 00000000  p.`.......@.....
 400ad0 70106000 00000000 1b0b4000 00000000  p.`.......@.....
 400ae0 d0106000 00000000 1e0b4000 00000000  ..`.......@.....
 400af0 00000000 02000000 c00a4000 00000000  ..........@.....
 400b00 02000000 00000000 d00a4000 00000000  ..........@.....
 400b10 02100000 00000000 31410031 42003143  ........1A.1B.1C
 400b20 00                                   .               
Contents of section .eh_frame_hdr:
 400b24 011b033b 70000000 0d000000 2cfcffff  ...;p.......,...
 400b34 7c010000 7cfcffff 94010000 a4fcffff  |...|...........
 400b44 8c000000 7cfdffff bc000000 8cfdffff  ....|...........
 400b54 d4000000 9cfdffff ec000000 acfdffff  ................
 400b64 04010000 bcfdffff 1c010000 ccfdffff  ................
 400b74 34010000 ecfdffff 4c010000 fcfdffff  4.......L.......
 400b84 64010000 0cfeffff ac010000 9cfeffff  d...............
 400b94 d4010000                             ....            
Contents of section .eh_frame:
 400b98 14000000 00000000 017a5200 01781001  .........zR..x..
 400ba8 1b0c0708 90010710 14000000 1c000000  ................
 400bb8 10fcffff 2a000000 00000000 00000000  ....*...........
 400bc8 14000000 00000000 017a5200 01781001  .........zR..x..
 400bd8 1b0c0708 90010000 14000000 1c000000  ................
 400be8 b8fcffff 08000000 00000000 00000000  ................
 400bf8 14000000 34000000 b0fcffff 08000000  ....4...........
 400c08 00000000 00000000 14000000 4c000000  ............L...
 400c18 a8fcffff 09000000 00000000 00000000  ................
 400c28 14000000 64000000 a0fcffff 10000000  ....d...........
 400c38 00000000 00000000 14000000 7c000000  ............|...
 400c48 98fcffff 06000000 00000000 00000000  ................
 400c58 14000000 94000000 90fcffff 14000000  ................
 400c68 00000000 00000000 14000000 ac000000  ................
 400c78 98fcffff 0c000000 00000000 00000000  ................
 400c88 14000000 c4000000 90fcffff 0c000000  ................
 400c98 00000000 00000000 14000000 dc000000  ................
 400ca8 a8faffff 4d000000 00440e10 02480e08  ....M....D...H..
 400cb8 14000000 f4000000 e0faffff 26000000  ............&...
 400cc8 00440e10 5d0e0800 24000000 0c010000  .D..]...$.......
 400cd8 58fcffff 89000000 004a8606 8c05660e  X........J....f.
 400ce8 4083078d 048e038f 0202580e 08000000  @.........X.....
 400cf8 14000000 34010000 c0fcffff 02000000  ....4...........
 400d08 00000000 00000000 00000000           ............    
Contents of section .init_array:
 600df0 a0074000 00000000                    ..@.....        
Contents of section .ctors:
 600df8 ffffffff ffffffff 00000000 00000000  ................
Contents of section .dtors:
 600e08 ffffffff ffffffff 00000000 00000000  ................
Contents of section .jcr:
 600e18 00000000 00000000                    ........        
Contents of section .dynamic:
 600e20 01000000 00000000 15000000 00000000  ................
 600e30 01000000 00000000 c0000000 00000000  ................
 600e40 0c000000 00000000 90064000 00000000  ..........@.....
 600e50 0d000000 00000000 080a4000 00000000  ..........@.....
 600e60 19000000 00000000 f00d6000 00000000  ..........`.....
 600e70 1b000000 00000000 08000000 00000000  ................
 600e80 f5feff6f 00000000 98024000 00000000  ...o......@.....
 600e90 05000000 00000000 e8034000 00000000  ..........@.....
 600ea0 06000000 00000000 c8024000 00000000  ..........@.....
 600eb0 0a000000 00000000 25010000 00000000  ........%.......
 600ec0 0b000000 00000000 18000000 00000000  ................
 600ed0 15000000 00000000 00000000 00000000  ................
 600ee0 03000000 00000000 e80f6000 00000000  ..........`.....
 600ef0 02000000 00000000 c0000000 00000000  ................
 600f00 14000000 00000000 07000000 00000000  ................
 600f10 17000000 00000000 d0054000 00000000  ..........@.....
 600f20 07000000 00000000 88054000 00000000  ..........@.....
 600f30 08000000 00000000 48000000 00000000  ........H.......
 600f40 09000000 00000000 18000000 00000000  ................
 600f50 feffff6f 00000000 28054000 00000000  ...o....(.@.....
 600f60 ffffff6f 00000000 02000000 00000000  ...o............
 600f70 f0ffff6f 00000000 0e054000 00000000  ...o......@.....
 600f80 00000000 00000000 00000000 00000000  ................
 600f90 00000000 00000000 00000000 00000000  ................
 600fa0 00000000 00000000 00000000 00000000  ................
 600fb0 00000000 00000000 00000000 00000000  ................
 600fc0 00000000 00000000 00000000 00000000  ................
 600fd0 00000000 00000000 00000000 00000000  ................
Contents of section .got:
 600fe0 00000000 00000000                    ........        
Contents of section .got.plt:
 600fe8 200e6000 00000000 00000000 00000000   .`.............
 600ff8 00000000 00000000 d6064000 00000000  ..........@.....
 601008 e6064000 00000000 f6064000 00000000  ..@.......@.....
 601018 06074000 00000000 16074000 00000000  ..@.......@.....
 601028 26074000 00000000 36074000 00000000  &.@.....6.@.....
 601038 46074000 00000000                    F.@.....        
Contents of section .data:
 601040 00000000 00000000 00000000 00000000  ................
Contents of section .comment:
 0000 4743433a 20285562 756e7475 2f4c696e  GCC: (Ubuntu/Lin
 0010 61726f20 342e362e 332d3175 62756e74  aro 4.6.3-1ubunt
 0020 75352920 342e362e 33004743 433a2028  u5) 4.6.3.GCC: (
 0030 5562756e 74752f4c 696e6172 6f20342e  Ubuntu/Linaro 4.
 0040 372e332d 31756275 6e747531 2920342e  7.3-1ubuntu1) 4.
 0050 372e3300                             7.3.            
Contents of section .debug_aranges:
 0000 bc000000 02000000 00000800 00000000  ................
 0010 a0084000 00000000 08000000 00000000  ..@.............
 0020 b0084000 00000000 08000000 00000000  ..@.............
 0030 c0084000 00000000 09000000 00000000  ..@.............
 0040 d0084000 00000000 10000000 00000000  ..@.............
 0050 e0084000 00000000 06000000 00000000  ..@.............
 0060 f0084000 00000000 14000000 00000000  ..@.............
 0070 10094000 00000000 0c000000 00000000  ..@.............
 0080 20094000 00000000 0c000000 00000000   .@.............
 0090 50074000 00000000 4d000000 00000000  P.@.....M.......
 00a0 a0074000 00000000 26000000 00000000  ..@.....&.......
 00b0 00000000 00000000 00000000 00000000  ................
Contents of section .debug_info:
 0000 0a190000 02000000 00000801 47050000  ............G...
 0010 04d00500 008b0700 00000000 00000000  ................
 0020 00000000 00000000 00600000 00000000  .........`......
 0030 00024100 000004d4 3c000000 03080765  ..A.....<......e
 0040 01000003 0108b105 00000302 07bf0300  ................
 0050 00030407 6a010000 030106b3 05000003  ....j...........
 0060 02052902 00000231 07000005 28710000  ..)....1....(q..
 0070 00040405 696e7400 030805a2 01000002  ....int.........
 0080 00000000 058c7800 00000257 07000005  ......x....W....
 0090 8d780000 00050806 089d0000 00030106  .x..............
 00a0 ba050000 073e0500 00d806f6 6b020000  .....>......k...
 00b0 08fe0100 0006f771 00000002 23000818  .......q....#...
 00c0 00000006 fc970000 00022308 08440700  ..........#..D..
 00d0 0006fd97 00000002 23100870 07000006  ........#..p....
 00e0 fe970000 00022318 08060900 0006ff97  ......#.........
 00f0 00000002 2320097f 03000006 00019700  ....# ..........
 0100 00000223 2809ff04 00000601 01970000  ...#(...........
 0110 00022330 090f0100 00060201 97000000  ..#0............
 0120 02233809 05020000 06030197 00000002  .#8.............
 0130 2340090d 04000006 05019700 00000223  #@.............#
 0140 48094708 00000606 01970000 00022350  H.G...........#P
 0150 097e0700 00060701 97000000 02235809  .~...........#X.
 0160 a1050000 06090168 03000002 23600925  .......h....#`.%
 0170 00000006 0b016e03 00000223 6809bc01  ......n....#h...
 0180 0000060d 01710000 00022370 09710400  .....q....#p.q..
 0190 00061101 71000000 02237409 ea080000  ....q....#t.....
 01a0 0613017f 00000002 2378091b 04000006  ........#x......
 01b0 17014a00 00000323 800109ef 05000006  ..J....#........
 01c0 18015800 00000323 8201097a 00000006  ..X....#...z....
 01d0 19017403 00000323 83010964 04000006  ..t....#...d....
 01e0 1d018403 00000323 880109ee 08000006  .......#........
 01f0 26018a00 00000323 900109cd 07000006  &......#........
 0200 2f019500 00000323 980109d4 07000006  /......#........
 0210 30019500 00000323 a00109db 07000006  0......#........
 0220 31019500 00000323 a80109e2 07000006  1......#........
 0230 32019500 00000323 b00109c9 02000006  2......#........
 0240 33013100 00000323 b8010930 08000006  3.1....#...0....
 0250 35017100 00000323 c001090f 08000006  5.q....#........
 0260 37018a03 00000323 c4010002 e1050000  7......#........
 0270 0740a400 00000a08 0853e907 0000be02  .@.......S......
 0280 00000b04 0856a102 00000c4b 04000008  .....V.....K....
 0290 58510000 000cbf05 0000085c be020000  XQ.........\....
 02a0 00086906 00000854 71000000 02230008  ..i....Tq....#..
 02b0 68070000 085d8202 00000223 04000d9d  h....].....#....
 02c0 000000ce 0200000e 3c000000 030002eb  ........<.......
 02d0 07000008 5e760200 00072704 00001809  ....^v....'.....
 02e0 001e0300 00088b00 00000900 51000000  ............Q...
 02f0 02230008 57080000 09005100 00000223  .#..W.....Q....#
 0300 04085e03 00000900 95000000 02230808  ..^..........#..
 0310 30060000 09009500 00000223 10000f33  0..........#...3
 0320 05000006 9b07dd02 00001806 a15c0300  .............\..
 0330 00085107 000006a2 5c030000 02230008  ..Q.....\....#..
 0340 ab030000 06a36203 00000223 08088d05  ......b....#....
 0350 000006a7 71000000 02231000 06082503  ....q....#....%.
 0360 00000608 a4000000 06082503 00000608  ..........%.....
 0370 a4000000 0d9d0000 00840300 000e3c00  ..............<.
 0380 00000000 06081e03 00000d9d 0000009a  ................
 0390 0300000e 3c000000 13000608 a0030000  ....<...........
 03a0 109d0000 00107100 00001158 04000004  ......q....X....
 03b0 61015100 000002ed 07000008 6ace0200  a.Q.........j...
 03c0 00127374 64000900 51060000 130a42b6  ..std...Q.....B.
 03d0 03000013 0a8daa03 0000130a 8f510600  .............Q..
 03e0 00130a90 69060000 130a9187 06000013  ....i...........
 03f0 0a92b606 0000130a 93d30600 00130a94  ................
 0400 fb060000 130a9518 07000013 0a963607  ..............6.
 0410 0000130a 97540700 00130a98 6c070000  .....T......l...
 0420 130a997a 07000013 0a9aa207 0000130a  ...z............
 0430 9bc90700 00130a9c ec070000 130a9d19  ................
 0440 08000013 0a9e3608 0000130a a04e0800  ......6......N..
 0450 00130aa2 71080000 130aa38f 08000013  ....q...........
 0460 0aa4ac08 0000130a a6d40800 00130aa9  ................
 0470 f6080000 130aac1d 09000013 0aae3f09  ..............?.
 0480 0000130a b05c0900 00130ab2 79090000  .....\......y...
 0490 130ab39b 09000013 0ab4b709 0000130a  ................
 04a0 b5d30900 00130ab6 ef090000 130ab70b  ................
 04b0 0a000013 0ab8270a 0000130a b9ff0a00  ......'.........
 04c0 00130aba 170b0000 130abb39 0b000013  ...........9....
 04d0 0abc5a0b 0000130a bd7b0b00 00130abe  ..Z......{......
 04e0 a80b0000 130abfc5 0b000013 0ac1ef0b  ................
 04f0 0000130a c3130c00 00130ac4 350c0000  ............5...
 0500 130ac557 0c000013 0ac6790c 0000130a  ...W......y.....
 0510 c79a0c00 00130ac8 b20c0000 130ac9d4  ................
 0520 0c000013 0acaf50c 0000130a cb160d00  ................
 0530 00130acc 370d0000 130acd50 0d000013  ....7......P....
 0540 0ace690d 0000130a cf890d00 00130ad0  ..i.............
 0550 aa0d0000 130ad1ca 0d000013 0ad2eb0d  ................
 0560 0000140a 0a01600e 0000140a 0b01840e  ......`.........
 0570 0000140a 0c01ad0e 00001529 07000012  ...........)....
 0580 31024100 00000b9b 3c000000 130c37f0  1.A.....<.....7.
 0590 0e000013 0c384d10 0000130c 39691000  .....8M.....9i..
 05a0 0002c307 00000b9c 78000000 163b0700  ........x....;..
 05b0 00011306 0000173c 00000001 0d170218  .......<........
 05c0 e8010000 0d1f027c 10000001 03011814  .......|........
 05d0 0700000d 2002e90e 00000103 0119013c  .... ..........<
 05e0 0000000d 1b0201ef 050000f6 0500001a  ................
 05f0 3d110000 01001b01 3b000000 0d1c0201  =.......;.......
 0600 04060000 1a3d1100 00011a71 00000001  .....=.....q....
 0610 00000013 0e544e11 0000130e 55431100  .....TN.....UC..
 0620 00130e56 aa030000 130e5e64 11000013  ...V......^d....
 0630 0e678011 0000130e 6a9c1100 00130e6b  .g......j......k
 0640 b3110000 1cd50400 00034bb6 05000001  ..........K.....
 0650 001d0195 00000008 8401aa03 00000169  ...............i
 0660 0600001e 71000000 001d01b4 08000008  ....q...........
 0670 e902aa03 00000181 0600001e 81060000  ................
 0680 0006086b 0200001d 01610700 000f8001  ...k.....a......
 0690 a9060000 01a90600 001ea906 00001e71  ...............q
 06a0 0000001e 81060000 000608af 06000003  ................
 06b0 04054e02 00001d01 92050000 08f702aa  ..N.............
 06c0 03000001 d3060000 1eaf0600 001e8106  ................
 06d0 0000001d 01aa0500 00080d03 71000000  ............q...
 06e0 01f00600 001ef006 00001e81 06000000  ................
 06f0 0608f606 000010af 0600001d 01b50700  ................
 0700 00084b02 71000000 01180700 001e8106  ..K.q...........
 0710 00001e71 00000000 1d011d01 00000f59  ...q...........Y
 0720 01710000 00013607 00001e81 0600001e  .q....6.........
 0730 f0060000 1f001d01 95010000 087b0271  .............{.q
 0740 00000001 54070000 1e810600 001ef006  ....T...........
 0750 00001f00 1d01b508 000008ea 02aa0300  ................
 0760 00016c07 00001e81 06000000 2001a106  ..l......... ...
 0770 000008f0 02aa0300 00011d01 e8050000  ................
 0780 088f0131 00000001 9c070000 1e9a0300  ...1............
 0790 001e3100 00001e9c 07000000 0608b603  ..1.............
 07a0 00001d01 e2080000 086d0131 00000001  .........m.1....
 07b0 c9070000 1ea90600 001e9a03 00001e31  ...............1
 07c0 0000001e 9c070000 001d0133 02000008  ...........3....
 07d0 69017100 000001e1 0700001e e1070000  i.q.............
 07e0 000608e7 07000010 b6030000 1d01c605  ................
 07f0 00000fda 01310000 00011308 00001ea9  .....1..........
 0800 0600001e 13080000 1e310000 001e9c07  .........1......
 0810 00000006 089a0300 001d0193 05000008  ................
 0820 f802aa03 00000136 0800001e af060000  .......6........
 0830 1e810600 00001d01 1f080000 08fe02aa  ................
 0840 03000001 4e080000 1eaf0600 00001d01  ....N...........
 0850 f6040000 0f1d0171 00000001 71080000  .......q....q...
 0860 1ea90600 001e3100 00001ef0 0600001f  ......1.........
 0870 001d018c 01000008 85027100 0000018f  ..........q.....
 0880 0800001e f0060000 1ef00600 001f001d  ................
 0890 01070800 00081503 aa030000 01ac0800  ................
 08a0 001eaa03 00001e81 06000000 1d011c01  ................
 08b0 00000f6c 01710000 0001ce08 00001e81  ...l.q..........
 08c0 0600001e f0060000 1ece0800 00000608  ................
 08d0 d9020000 1d019401 000008b1 02710000  .............q..
 08e0 0001f608 00001e81 0600001e f0060000  ................
 08f0 1ece0800 00001d01 f5040000 0f3b0171  .............;.q
 0900 00000001 1d090000 1ea90600 001e3100  ..............1.
 0910 00001ef0 0600001e ce080000 001d018b  ................
 0920 01000008 bd027100 0000013f 0900001e  ......q....?....
 0930 f0060000 1ef00600 001ece08 0000001d  ................
 0940 013e0800 000f6601 71000000 015c0900  .>....f.q....\..
 0950 001ef006 00001ece 08000000 1d01cb01  ................
 0960 000008b9 02710000 00017909 00001ef0  .....q....y.....
 0970 0600001e ce080000 001d0148 0600000f  ...........H....
 0980 b8013100 0000019b 0900001e 97000000  ..1.............
 0990 1eaf0600 001e9c07 00000021 016a0400  ...........!.j..
 09a0 000ff6a9 06000001 b7090000 1ea90600  ................
 09b0 001ef006 00000021 010d0700 0008a371  .......!.......q
 09c0 00000001 d3090000 1ef00600 001ef006  ................
 09d0 00000021 01770300 0008c071 00000001  ...!.w.....q....
 09e0 ef090000 1ef00600 001ef006 00000021  ...............!
 09f0 01510400 000f98a9 06000001 0b0a0000  .Q..............
 0a00 1ea90600 001ef006 00000021 01b40100  ...........!....
 0a10 0008fc31 00000001 270a0000 1ef00600  ...1....'.......
 0a20 001ef006 0000001d 012c0000 00085703  .........,....W.
 0a30 31000000 014e0a00 001ea906 00001e31  1....N.........1
 0a40 0000001e f0060000 1e4e0a00 00000608  .........N......
 0a50 540a0000 10590a00 0022746d 00381085  T....Y..."tm.8..
 0a60 ff0a0000 08180800 00108771 00000002  ...........q....
 0a70 230008ce 04000010 88710000 00022304  #........q....#.
 0a80 082b0500 00108971 00000002 230808bb  .+.....q....#...
 0a90 07000010 8a710000 0002230c 08a20200  .....q....#.....
 0aa0 00108b71 00000002 231008ee 02000010  ...q....#.......
 0ab0 8c710000 00022314 08710600 00108d71  .q....#..q.....q
 0ac0 00000002 231808e5 04000010 8e710000  ....#........q..
 0ad0 0002231c 08d20300 00108f71 00000002  ..#........q....
 0ae0 2320083e 06000010 92780000 00022328  # .>.....x....#(
 0af0 08580100 0010939a 03000002 2330001d  .X..........#0..
 0b00 01320300 00081f01 31000000 01170b00  .2......1.......
 0b10 001ef006 0000001d 01360800 000f0701  .........6......
 0b20 a9060000 01390b00 001ea906 00001ef0  .....9..........
 0b30 0600001e 31000000 0021019c 04000008  ....1....!......
 0b40 a6710000 00015a0b 00001ef0 0600001e  .q....Z.........
 0b50 f0060000 1e310000 00002101 28080000  .....1....!.(...
 0b60 0fbfa906 0000017b 0b00001e a9060000  .......{........
 0b70 1ef00600 001e3100 0000001d 010d0500  ......1.........
 0b80 000ffc01 31000000 01a20b00 001e9700  ....1...........
 0b90 00001ea2 0b00001e 31000000 1e9c0700  ........1.......
 0ba0 00000608 f0060000 1d01de04 00000800  ................
 0bb0 01310000 0001c50b 00001ef0 0600001e  .1..............
 0bc0 f0060000 001d01c4 01000008 c201e20b  ................
 0bd0 000001e2 0b00001e f0060000 1ee90b00  ................
 0be0 00000308 04e30600 000608a9 0600001d  ................
 0bf0 01620600 0008c901 0c0c0000 010c0c00  .b..............
 0c00 001ef006 00001ee9 0b000000 03040487  ................
 0c10 0500001d 01da0100 00081a01 a9060000  ................
 0c20 01350c00 001ea906 00001ef0 0600001e  .5..............
 0c30 e90b0000 001d01e1 01000008 d4017800  ..............x.
 0c40 00000157 0c00001e f0060000 1ee90b00  ...W............
 0c50 001e7100 0000001d 01d90500 0008d901  ..q.............
 0c60 3c000000 01790c00 001ef006 00001ee9  <....y..........
 0c70 0b00001e 71000000 002101a4 04000008  ....q....!......
 0c80 c4310000 00019a0c 00001ea9 0600001e  .1..............
 0c90 f0060000 1e310000 00001d01 b4040000  .....1..........
 0ca0 088a0171 00000001 b20c0000 1eaa0300  ...q............
 0cb0 00001d01 ed040000 08450171 00000001  .........E.q....
 0cc0 d40c0000 1ef00600 001ef006 00001e31  ...............1
 0cd0 00000000 21019905 00000f27 a9060000  ....!......'....
 0ce0 01f50c00 001ea906 00001ef0 0600001e  ................
 0cf0 31000000 002101a2 0300000f 44a90600  1....!......D...
 0d00 0001160d 00001ea9 0600001e f0060000  ................
 0d10 1e310000 00002101 56020000 0f81a906  .1....!.V.......
 0d20 00000137 0d00001e a9060000 1eaf0600  ...7............
 0d30 001e3100 0000001d 011e0100 000f5301  ..1...........S.
 0d40 71000000 01500d00 001ef006 00001f00  q....P..........
 0d50 1d019601 00000882 02710000 0001690d  .........q....i.
 0d60 00001ef0 0600001f 00230170 03000008  .........#.p....
 0d70 e0700300 00f00600 0001890d 00001ef0  .p..............
 0d80 0600001e af060000 002401c5 00000008  .........$......
 0d90 0601c500 0000f006 000001aa 0d00001e  ................
 0da0 f0060000 1ef00600 00002301 8d030000  ..........#.....
 0db0 08ea8d03 0000f006 000001ca 0d00001e  ................
 0dc0 f0060000 1eaf0600 00002401 84000000  ..........$.....
 0dd0 08110184 000000f0 06000001 eb0d0000  ................
 0de0 1ef00600 001ef006 00000024 01230500  ...........$.#..
 0df0 00083c01 23050000 f0060000 01110e00  ..<.#...........
 0e00 001ef006 00001eaf 0600001e 31000000  ............1...
 0e10 00254709 00000af4 600e0000 130afa60  .%G.....`......`
 0e20 0e000014 0a030184 0e000014 0a0401ad  ................
 0e30 0e000013 112a8105 00001311 2ba10500  .....*......+...
 0e40 00268306 00000126 06030000 01262209  .&.....&.....&".
 0e50 00000126 ba060000 0126ea06 00000100  ...&.....&......
 0e60 1d01ac04 000008cb 017d0e00 00017d0e  .........}....}.
 0e70 00001ef0 0600001e e90b0000 00031004  ................
 0e80 de060000 1d01c604 000008e3 01a60e00  ................
 0e90 0001a60e 00001ef0 0600001e e90b0000  ................
 0ea0 1e710000 00000308 059d0100 001d01ab  .q..............
 0eb0 08000008 ea01cf0e 000001cf 0e00001e  ................
 0ec0 f0060000 1ee90b00 001e7100 00000003  ..........q.....
 0ed0 08076001 000025ba 04000012 38e90e00  ..`...%.....8...
 0ee0 00271239 7a050000 00030102 5f040000  .'.9z......._...
 0ef0 07cd0000 00601336 4d100000 08500300  .....`.6M....P..
 0f00 00133a97 00000002 23000854 06000013  ..:.....#..T....
 0f10 3b970000 00022308 08d40200 00134197  ;.....#.......A.
 0f20 00000002 23100811 02000013 47970000  ....#.......G...
 0f30 00022318 08080000 00134897 00000002  ..#.......H.....
 0f40 2320084c 03000013 49970000 00022328  # .L....I.....#(
 0f50 08500600 00134a97 00000002 233008d0  .P....J.....#0..
 0f60 02000013 4b970000 00022338 083b0200  ....K.....#8.;..
 0f70 00134c97 00000002 234008b1 03000013  ..L.....#@......
 0f80 4d970000 00022348 08610800 00134e9d  M.....#H.a....N.
 0f90 00000002 23500865 08000013 4f9d0000  ....#P.e....O...
 0fa0 00022351 08620200 0013519d 00000002  ..#Q.b....Q.....
 0fb0 2352083d 03000013 539d0000 00022353  #R.=....S.....#S
 0fc0 087d0400 0013559d 00000002 235408bf  .}....U.....#T..
 0fd0 08000013 579d0000 00022355 08ae0600  ....W.....#U....
 0fe0 00135e9d 00000002 235608fb 07000013  ..^.....#V......
 0ff0 5f9d0000 00022357 085e0200 0013629d  _.....#W.^....b.
 1000 00000002 23580839 03000013 649d0000  ....#X.9....d...
 1010 00022359 08790400 0013669d 00000002  ..#Y.y....f.....
 1020 235a08bb 08000013 689d0000 0002235b  #Z......h.....#[
 1030 08aa0600 00136f9d 00000002 235c08f7  ......o.....#\..
 1040 07000013 709d0000 0002235d 0021018b  ....p.....#].!..
 1050 04000013 7d970000 00016910 00001e71  ....}.....i....q
 1060 0000001e 9a030000 00280180 01000013  .........(......
 1070 80761000 00010608 f00e0000 02950300  .v..............
 1080 00142071 00000029 410e0000 011537da  .. q...)A.....7.
 1090 1000002a 35000000 153aa503 00000101  ...*5....:......
 10a0 2a410900 00153ba5 03000001 012a1705  *A....;......*..
 10b0 0000153f da100000 01012a77 01000015  ...?......*w....
 10c0 40a50300 0001012b d3010000 71000000  @......+....q...
 10d0 2bd30100 00710000 000010e9 0e000006  +....q..........
 10e0 08970000 0029470e 00000115 37381100  .....)G.....78..
 10f0 002a3500 0000153a 38110000 01012a41  .*5....:8.....*A
 1100 09000015 3b381100 0001012a 17050000  ....;8.....*....
 1110 153fda10 00000101 2a770100 001540a5  .?......*w....@.
 1120 03000001 012bd301 00003c00 00002bd3  .....+....<...+.
 1130 0100003c 00000000 103c0000 000608b6  ...<.....<......
 1140 05000002 a9020000 16343c00 00000279  .........4<....y
 1150 06000016 ba591100 0006085f 11000010  .....Y....._....
 1160 66000000 2101ab01 000016af 71000000  f...!.......q...
 1170 01801100 001eaa03 00001e43 11000000  ...........C....
 1180 2101f401 000016dd aa030000 019c1100  !...............
 1190 001eaa03 00001e4e 11000000 2101f601  .......N....!...
 11a0 000016da 4e110000 01b31100 001e9a03  ....N...........
 11b0 00000021 01ad0100 0016ab43 11000001  ...!.......C....
 11c0 ca110000 1e9a0300 0000294d 0e000001  ..........)M....
 11d0 15371d12 00002a35 00000015 3aa00300  .7....*5....:...
 11e0 0001012a 41090000 153ba003 00000101  ...*A....;......
 11f0 2a170500 00153fda 10000001 012a7701  *.....?......*w.
 1200 00001540 a5030000 01012bd3 0100009d  ...@......+.....
 1210 0000002b d3010000 9d000000 0029530e  ...+.........)S.
 1220 00000115 37701200 002a3500 0000153a  ....7p...*5....:
 1230 70120000 01012a41 09000015 3b701200  p.....*A....;p..
 1240 0001012a 17050000 153fda10 00000101  ...*.....?......
 1250 2a770100 001540a5 03000001 012bd301  *w....@......+..
 1260 00005f00 00002bd3 0100005f 00000000  .._...+...._....
 1270 105f0000 0029590e 00000115 37c81200  ._...)Y.....7...
 1280 002a3500 0000153a c8120000 01012a41  .*5....:......*A
 1290 09000015 3bc81200 0001012a 17050000  ....;......*....
 12a0 153fda10 00000101 2a770100 001540a5  .?......*w....@.
 12b0 03000001 012bd301 00007800 00002bd3  .....+....x...+.
 12c0 01000078 00000000 10780000 00270109  ...x.....x...'..
 12d0 c1030000 2c430020 013f4213 00004213  ....,C. .?B...B.
 12e0 00002d42 13000002 2300012d b8130000  ..-B....#..-....
 12f0 02231001 2e014300 01010213 00000e13  .#....C.........
 1300 00001a2e 14000001 1e341400 00002e01  .........4......
 1310 43000101 1c130000 23130000 1a2e1400  C.......#.......
 1320 0001002f 017e4300 014101d4 12000001  .../.~C..A......
 1330 34130000 1a2e1400 00011a71 00000001  4..........q....
 1340 00002c41 00100131 42130000 b8130000  ..,A...1B.......
 1350 30b20200 004a1400 00022300 01316d00  0....J....#..1m.
 1360 01337100 00000223 08032e01 41000101  .3q....#....A...
 1370 78130000 84130000 1a6b1400 00011e71  x........k.....q
 1380 14000000 2e014100 01019213 00009913  ......A.........
 1390 00001a6b 14000001 002f017e 41000135  ...k...../.~A..5
 13a0 01421300 0001aa13 00001a6b 14000001  .B.........k....
 13b0 1a710000 00010000 2c420010 0138b813  .q......,B...8..
 13c0 00002e14 00003021 0200004a 14000002  ......0!...J....
 13d0 23000131 7900013a 71000000 02230803  #..1y..:q....#..
 13e0 2e014200 0101ee13 0000fa13 00001a5a  ..B............Z
 13f0 14000001 1e601400 00002e01 42000101  .....`......B...
 1400 08140000 0f140000 1a5a1400 0001002f  .........Z...../
 1410 017e4200 013c01b8 13000001 20140000  .~B..<...... ...
 1420 1a5a1400 00011a71 00000001 00000608  .Z.....q........
 1430 d4120000 32083a14 000010d4 12000033  ....2.:........3
 1440 71000000 4a140000 1f000608 50140000  q...J.......P...
 1450 3408f602 00003f14 00000608 b8130000  4.....?.........
 1460 32086614 000010b8 13000006 08421300  2.f..........B..
 1470 00320877 14000010 42130000 350f1400  .2.w....B...5...
 1480 00038a14 00009f14 00003649 0200009f  ..........6I....
 1490 14000001 36050100 00a50300 00010010  ....6...........
 14a0 5a140000 35991300 0003b214 0000c714  Z...5...........
 14b0 00003649 020000c7 14000001 36050100  ..6I........6...
 14c0 00a50300 00010010 6b140000 35231300  ........k...5#..
 14d0 0003da14 0000ef14 00003649 020000ef  ..........6I....
 14e0 14000001 36050100 00a50300 00010010  ....6...........
 14f0 2e140000 37841300 00013103 04150000  ....7.....1.....
 1500 0f150000 36490200 00c71400 00010037  ....6I.........7
 1510 fa130000 0138031f 1500002a 15000036  .....8.....*...6
 1520 49020000 9f140000 0100370e 13000001  I.........7.....
 1530 3f033a15 00004515 00003649 020000ef  ?.:...E...6I....
 1540 14000001 0038011f 01000002 66710000  .....8......fq..
 1550 00030164 15000039 af070000 02669a03  ...d...9.....f..
 1560 00001f00 3a9b0000 00010186 15000039  ....:..........9
 1570 ba020000 014e7100 000039f6 08000001  .....Nq...9.....
 1580 4e710000 00003ba4 140000a0 08400000  Nq....;......@..
 1590 000000a8 08400000 00000002 7708a615  .....@......w...
 15a0 0000ae15 00003cb2 14000001 55003b7c  ......<.....U.;|
 15b0 140000b0 08400000 000000b8 08400000  .....@.......@..
 15c0 00000002 7708ce15 0000d615 00003c8a  ....w.........<.
 15d0 14000001 55003bcc 140000d0 08400000  ....U.;......@..
 15e0 000000e0 08400000 00000002 7708f615  .....@......w...
 15f0 00004216 00003cda 14000001 553d7c14  ..B...<.....U=|.
 1600 0000d008 40000000 0000d808 40000000  ....@.......@...
 1610 00000141 22160000 3c8a1400 00037510  ...A"...<.....u.
 1620 9f003ea4 140000d8 08400000 000000df  ..>......@......
 1630 08400000 00000001 413cb214 00000155  .@......A<.....U
 1640 00003bcc 140000f0 08400000 00000004  ..;......@......
 1650 09400000 00000002 77086216 0000d316  .@......w.b.....
 1660 00003fda 14000000 0000003e cc140000  ..?........>....
 1670 f0084000 00000000 ff084000 00000000  ..@.......@.....
 1680 01413fda 14000023 0000003d 7c140000  .A?....#...=|...
 1690 f0084000 00000000 f8084000 00000000  ..@.......@.....
 16a0 0141b016 00003f8a 14000046 00000000  .A....?....F....
 16b0 3ea41400 00f80840 00000000 00ff0840  >......@.......@
 16c0 00000000 0001413f b2140000 6b000000  ......A?....k...
 16d0 0000003b 7c140000 10094000 00000000  ...;|.....@.....
 16e0 1c094000 00000000 027708f3 1600001e  ..@......w......
 16f0 1700003f 8a140000 8e000000 3e7c1400  ...?........>|..
 1700 00100940 00000000 00170940 00000000  ...@.......@....
 1710 00013c3f 8a140000 b1000000 00003ba4  ..<?..........;.
 1720 14000020 09400000 0000002c 09400000  ... .@.....,.@..
 1730 00000002 77083e17 00006917 00003fb2  ....w.>...i...?.
 1740 140000d4 0000003e a4140000 20094000  .......>.... .@.
 1750 00000000 27094000 00000000 01353fb2  ....'.@......5?.
 1760 140000f7 00000000 004001dd 08000001  .........@......
 1770 45710000 00500740 00000000 009d0740  Eq...P.@.......@
 1780 00000000 001a0100 002e1800 0041a608  .............A..
 1790 00000145 71000000 66010000 41010900  ...Eq...f...A...
 17a0 000145df 10000089 01000042 54074000  ..E........BT.@.
 17b0 00000000 96074000 00000000 43630001  ......@.....Cc..
 17c0 472e1400 00ac0100 00436100 01486b14  G........Ca..Hk.
 17d0 0000ac01 00004362 0001495a 140000e2  ......Cb..IZ....
 17e0 01000044 45150000 5e074000 00000000  ...DE...^.@.....
 17f0 00000000 014c0b18 00003c57 1500000a  .....L....<W....
 1800 03240a40 00000000 009f003e 2a150000  .$.@.......>*...
 1810 70074000 00000000 7f074000 00000000  p.@.......@.....
 1820 01473f3a 15000005 02000000 000045ce  .G?:..........E.
 1830 08000001 a0074000 00000000 c6074000  ......@.......@.
 1840 00000000 3b020000 6e180000 46641500  ....;...n...Fd..
 1850 00a40740 00000000 00300000 00014e47  ...@.....0....NG
 1860 7a150000 ffff486f 15000001 000049e8  z.....Ho......I.
 1870 02000007 a8620300 00010149 95040000  .....b.....I....
 1880 07a96203 00000101 4a150900 00950000  ..b.....J.......
 1890 00010101 4b440600 00090328 11600000  ....KD.....(.`..
 18a0 0000004c 93100000 d3000000 80808080  ...L............
 18b0 784da010 00005505 0000ffff ff7f4e18  xM....U.......N.
 18c0 11000071 08000040 4ee31100 00fe0500  ...q...@N.......
 18d0 007f4c29 120000db 03000080 807e4f36  ..L).........~O6
 18e0 12000026 010000ff 7f4c8112 00007002  ...&.....L....p.
 18f0 00008080 80808080 8080807f 508e1200  ............P...
 1900 00480000 00ffffff ffffffff 7f00      .H............  
Contents of section .debug_abbrev:
 0000 01110125 0e130b03 0e1b0e11 01520155  ...%.........R.U
 0010 06100600 00021600 030e3a0b 3b0b4913  ..........:.;.I.
 0020 00000324 000b0b3e 0b030e00 00042400  ...$...>......$.
 0030 0b0b3e0b 03080000 050f000b 0b000006  ..>.............
 0040 0f000b0b 49130000 07130103 0e0b0b3a  ....I..........:
 0050 0b3b0b01 13000008 0d00030e 3a0b3b0b  .;..........:.;.
 0060 4913380a 0000090d 00030e3a 0b3b0549  I.8........:.;.I
 0070 13380a00 000a1301 0b0b3a0b 3b0b8740  .8........:.;..@
 0080 0e011300 000b1701 0b0b3a0b 3b0b0113  ..........:.;...
 0090 00000c0d 00030e3a 0b3b0b49 1300000d  .......:.;.I....
 00a0 01014913 01130000 0e210049 132f0b00  ..I......!.I./..
 00b0 000f1600 030e3a0b 3b0b0000 10260049  ......:.;....&.I
 00c0 13000011 1600030e 3a0b3b05 49130000  ........:.;.I...
 00d0 12390103 083a0b3b 0b011300 00130800  .9...:.;........
 00e0 3a0b3b0b 18130000 1408003a 0b3b0518  :.;........:.;..
 00f0 13000015 3900030e 3a0b3b0b 00001602  ....9...:.;.....
 0100 01030e3c 0c011300 00170201 030e0b0b  ...<............
 0110 3a0b3b05 0000180d 00030e3a 0b3b0549  :.;........:.;.I
 0120 133f0c32 0b3c0c00 00192e01 3f0c030e  .?.2.<......?...
 0130 3a0b3b05 3c0c6413 01130000 1a050049  :.;.<.d........I
 0140 13340c00 001b2e01 3f0c030e 3a0b3b05  .4......?...:.;.
 0150 3c0c6413 00001c34 00030e3a 0b3b0b49  <.d....4...:.;.I
 0160 133c0c00 001d2e01 3f0c030e 3a0b3b05  .<......?...:.;.
 0170 49133c0c 01130000 1e050049 1300001f  I.<........I....
 0180 18000000 202e003f 0c030e3a 0b3b0549  .... ..?...:.;.I
 0190 133c0c00 00212e01 3f0c030e 3a0b3b0b  .<...!..?...:.;.
 01a0 49133c0c 01130000 22130103 080b0b3a  I.<....."......:
 01b0 0b3b0b01 13000023 2e013f0c 030e3a0b  .;.....#..?...:.
 01c0 3b0b8740 0e49133c 0c011300 00242e01  ;..@.I.<.....$..
 01d0 3f0c030e 3a0b3b05 87400e49 133c0c01  ?...:.;..@.I.<..
 01e0 13000025 3901030e 3a0b3b0b 01130000  ...%9...:.;.....
 01f0 26130003 0e3c0c00 00273a00 3a0b3b0b  &....<...':.:.;.
 0200 18130000 282e003f 0c030e3a 0b3b0b49  ....(..?...:.;.I
 0210 133c0c00 00291301 47130b0b 3a0b3b0b  .<...)..G...:.;.
 0220 01130000 2a0d0003 0e3a0b3b 0b49133f  ....*....:.;.I.?
 0230 0c3c0c00 002b2f00 030e4913 00002c02  .<...+/...I...,.
 0240 0103080b 0b3a0b3b 0b1d1301 1300002d  .....:.;.......-
 0250 1c004913 380a320b 00002e2e 013f0c03  ..I.8.2......?..
 0260 08340c3c 0c641301 1300002f 2e013f0c  .4.<.d...../..?.
 0270 03083a0b 3b0b4c0b 1d133c0c 64130000  ..:.;.L...<.d...
 0280 300d0003 0e491338 0a340c00 00310d00  0....I.8.4...1..
 0290 03083a0b 3b0b4913 380a320b 00003210  ..:.;.I.8.2...2.
 02a0 000b0b49 13000033 15014913 01130000  ...I...3..I.....
 02b0 340f000b 0b030e49 13000035 2e014713  4......I...5..G.
 02c0 200b6413 01130000 36050003 0e491334   .d.....6....I.4
 02d0 0c000037 2e014713 3a0b3b0b 200b6413  ...7..G.:.;. .d.
 02e0 01130000 382e013f 0c030e3a 0b3b0b49  ....8..?...:.;.I
 02f0 13200b34 0c011300 00390500 030e3a0b  . .4.....9....:.
 0300 3b0b4913 00003a2e 01030e34 0c200b01  ;.I...:....4. ..
 0310 1300003b 2e013113 11011201 400a6413  ...;..1.....@.d.
 0320 01130000 3c050031 13020a00 003d1d01  ....<..1.....=..
 0330 31131101 1201580b 590b0113 00003e1d  1.....X.Y.....>.
 0340 01311311 01120158 0b590b00 003f0500  .1.....X.Y...?..
 0350 31130206 0000402e 013f0c03 0e3a0b3b  1.....@..?...:.;
 0360 0b491311 01120140 06011300 00410500  .I.....@.....A..
 0370 030e3a0b 3b0b4913 02060000 420b0111  ..:.;.I.....B...
 0380 01120100 00433400 03083a0b 3b0b4913  .....C4...:.;.I.
 0390 02060000 441d0131 13520155 06580b59  ....D..1.R.U.X.Y
 03a0 0b011300 00452e01 030e340c 11011201  .....E....4.....
 03b0 40060113 0000461d 01311352 01550658  @.....F..1.R.U.X
 03c0 0b590b00 00470500 31131c05 00004805  .Y...G..1.....H.
 03d0 0031131c 0b000049 3400030e 3a0b3b0b  .1.....I4...:.;.
 03e0 49133f0c 3c0c0000 4a340003 0e49133f  I.?.<...J4...I.?
 03f0 0c340c3c 0c00004b 34004713 020a0000  .4.<...K4.G.....
 0400 4c340047 1387400e 1c0d0000 4d340047  L4.G..@.....M4.G
 0410 1387400e 1c060000 4e340047 1387400e  ..@.....N4.G..@.
 0420 1c0b0000 4f340047 1387400e 1c050000  ....O4.G..@.....
 0430 50340047 1387400e 1c070000 00        P4.G..@......   
Contents of section .debug_line:
 0000 d9020000 02001502 00000101 fb0e0d00  ................
 0010 01010101 00000001 0000012f 7573722f  .........../usr/
 0020 696e636c 7564652f 7838365f 36342d6c  include/x86_64-l
 0030 696e7578 2d676e75 2f626974 73002f75  inux-gnu/bits./u
 0040 73722f69 6e636c75 64652f63 2b2b2f34  sr/include/c++/4
 0050 2e36002f 7573722f 6c69622f 6763632f  .6./usr/lib/gcc/
 0060 7838365f 36342d6c 696e7578 2d676e75  x86_64-linux-gnu
 0070 2f342e36 2f696e63 6c756465 002f7573  /4.6/include./us
 0080 722f696e 636c7564 65002f75 73722f69  r/include./usr/i
 0090 6e636c75 64652f63 2b2b2f34 2e362f78  nclude/c++/4.6/x
 00a0 38365f36 342d6c69 6e75782d 676e752f  86_64-linux-gnu/
 00b0 2e2f6269 7473002f 7573722f 696e636c  ./bits./usr/incl
 00c0 7564652f 632b2b2f 342e362f 62697473  ude/c++/4.6/bits
 00d0 002f7573 722f696e 636c7564 652f632b  ./usr/include/c+
 00e0 2b2f342e 362f6578 74002f75 73722f69  +/4.6/ext./usr/i
 00f0 6e636c75 64652f63 2b2b2f34 2e362f64  nclude/c++/4.6/d
 0100 65627567 00006d61 696e2e63 70700000  ebug..main.cpp..
 0110 00007374 64696f32 2e680001 0000696f  ..stdio2.h....io
 0120 73747265 616d0002 00007374 64646566  stream....stddef
 0130 2e680003 00007479 7065732e 68000100  .h....types.h...
 0140 006c6962 696f2e68 00040000 73746469  .libio.h....stdi
 0150 6f2e6800 04000077 63686172 2e680004  o.h....wchar.h..
 0160 00003c62 75696c74 2d696e3e 00000000  ..<built-in>....
 0170 63776368 61720002 0000632b 2b636f6e  cwchar....c++con
 0180 6669672e 68000500 00636c6f 63616c65  fig.h....clocale
 0190 00020000 696f735f 62617365 2e680006  ....ios_base.h..
 01a0 00006377 63747970 65000200 00776368  ..cwctype....wch
 01b0 6172322e 68000100 0074696d 652e6800  ar2.h....time.h.
 01c0 0400006e 65775f61 6c6c6f63 61746f72  ...new_allocator
 01d0 2e680007 00006465 6275672e 68000800  .h....debug.h...
 01e0 006c6f63 616c652e 68000400 0061746f  .locale.h....ato
 01f0 6d69635f 776f7264 2e680005 00006e75  mic_word.h....nu
 0200 6d657269 635f7472 61697473 2e680007  meric_traits.h..
 0210 00007763 74797065 2e680004 00000000  ..wctype.h......
 0220 0902a008 40000000 00000334 01010208  ....@......4....
 0230 00010100 0902b008 40000000 0000033b  ........@......;
 0240 01010208 00010100 0902d008 40000000  ............@...
 0250 000003c0 00010d03 7982030c 74020100  ........y...t...
 0260 01010009 02f00840 00000000 0003c000  .......@........
 0270 010d0379 82030c74 02050001 01000902  ...y...t........
 0280 10094000 00000000 033b0101 020c0001  ..@......;......
 0290 01000902 20094000 00000000 03340101  .... .@......4..
 02a0 020c0001 01000902 50074000 00000000  ........P.@.....
 02b0 03c50001 4b040203 219e0401 035f4a03  ....K...!...._J.
 02c0 78d60402 0329e404 01036608 669e0403  x....)....f.f...
 02d0 47040108 85040347 02050001 01        G......G.....   
Contents of section .debug_str:
 0000 5f5f6f66 665f7400 63757272 656e6379  __off_t.currency
 0010 5f73796d 626f6c00 5f494f5f 72656164  _symbol._IO_read
 0020 5f707472 005f6368 61696e00 77637366  _ptr._chain.wcsf
 0030 74696d65 005f5f6d 696e007e 496e6974  time.__min.~Init
 0040 0073697a 655f7400 5f5a4e39 5f5f676e  .size_t._ZN9__gn
 0050 755f6378 7832345f 5f6e756d 65726963  u_cxx24__numeric
 0060 5f747261 6974735f 696e7465 67657249  _traits_integerI
 0070 6c45355f 5f6d6178 45005f73 686f7274  lE5__maxE._short
 0080 62756600 77637373 74720067 705f6f66  buf.wcsstr.gp_of
 0090 66736574 0062746f 7763005f 5f737461  fset.btowc.__sta
 00a0 7469635f 696e6974 69616c69 7a617469  tic_initializati
 00b0 6f6e5f61 6e645f64 65737472 75637469  on_and_destructi
 00c0 6f6e5f30 00776373 7062726b 006c636f  on_0.wcspbrk.lco
 00d0 6e76005f 5a4e395f 5f676e75 5f637878  nv._ZN9__gnu_cxx
 00e0 32345f5f 6e756d65 7269635f 74726169  24__numeric_trai
 00f0 74735f69 6e746567 65724969 45355f5f  ts_integerIiE5__
 0100 6d696e45 005f5f69 6e5f6368 7267005f  minE.__in_chrg._
 0110 494f5f62 75665f62 61736500 76667770  IO_buf_base.vfwp
 0120 72696e74 66005f5a 4e395f5f 676e755f  rintf._ZN9__gnu_
 0130 63787832 345f5f6e 756d6572 69635f74  cxx24__numeric_t
 0140 72616974 735f696e 74656765 72497345  raits_integerIsE
 0150 355f5f6d 61784500 746d5f7a 6f6e6500  5__maxE.tm_zone.
 0160 6c6f6e67 206c6f6e 6720756e 7369676e  long long unsign
 0170 65642069 6e74005f 5f646967 69747300  ed int.__digits.
 0180 6c6f6361 6c65636f 6e760076 73777363  localeconv.vswsc
 0190 616e6600 76667773 63616e66 006c6f6e  anf.vfwscanf.lon
 01a0 67206c6f 6e672069 6e740069 73776374  g long int.iswct
 01b0 79706500 77637363 73706e00 5f66696c  ype.wcscspn._fil
 01c0 656e6f00 77637374 6f640076 77736361  eno.wcstod.vwsca
 01d0 6e66005f 56616c75 65007763 73746f6b  nf._Value.wcstok
 01e0 00776373 746f6c00 5f535f72 6566636f  .wcstol._S_refco
 01f0 756e7400 746f7763 7472616e 73005f66  unt.towctrans._f
 0200 6c616773 005f494f 5f627566 5f656e64  lags._IO_buf_end
 0210 00696e74 5f637572 725f7379 6d626f6c  .int_curr_symbol
 0220 005f7670 74722e42 0073686f 72742069  ._vptr.B.short i
 0230 6e74006d 6273696e 69740070 6f736974  nt.mbsinit.posit
 0240 6976655f 7369676e 00746869 73007763  ive_sign.this.wc
 0250 6861725f 7400776d 656d7365 7400696e  har_t.wmemset.in
 0260 745f705f 63735f70 72656365 64657300  t_p_cs_precedes.
 0270 5f5a4e39 5f5f676e 755f6378 7832345f  _ZN9__gnu_cxx24_
 0280 5f6e756d 65726963 5f747261 6974735f  _numeric_traits_
 0290 696e7465 67657249 6c45355f 5f6d696e  integerIlE5__min
 02a0 4500746d 5f6d6f6e 00776374 7970655f  E.tm_mon.wctype_
 02b0 74005f76 7074722e 41005f5f 696e6974  t._vptr.A.__init
 02c0 69616c69 7a655f70 005f5f70 61643500  ialize_p.__pad5.
 02d0 6d6f6e5f 67726f75 70696e67 005f494f  mon_grouping._IO
 02e0 5f6d6172 6b657200 73746469 6e00746d  _marker.stdin.tm
 02f0 5f796561 72005f5f 7674626c 5f707472  _year.__vtbl_ptr
 0300 5f747970 65005f5f 6e756d65 7269635f  _type.__numeric_
 0310 74726169 74735f69 6e746567 65723c6c  traits_integer<l
 0320 6f6e6720 756e7369 676e6564 20696e74  ong unsigned int
 0330 3e007763 736c656e 00696e74 5f705f73  >.wcslen.int_p_s
 0340 65705f62 795f7370 61636500 6d6f6e5f  ep_by_space.mon_
 0350 64656369 6d616c5f 706f696e 74006f76  decimal_point.ov
 0360 6572666c 6f775f61 72675f61 72656100  erflow_arg_area.
 0370 77637363 68720077 6373636f 6c6c005f  wcschr.wcscoll._
 0380 494f5f77 72697465 5f707472 00776373  IO_write_ptr.wcs
 0390 72636872 005f4174 6f6d6963 5f776f72  rchr._Atomic_wor
 03a0 6400776d 656d6d6f 7665005f 73627566  d.wmemmove._sbuf
 03b0 006e6567 61746976 655f7369 676e0073  .negative_sign.s
 03c0 686f7274 20756e73 69676e65 6420696e  hort unsigned in
 03d0 7400746d 5f697364 7374005f 5a4e395f  t.tm_isdst._ZN9_
 03e0 5f676e75 5f637878 32345f5f 6e756d65  _gnu_cxx24__nume
 03f0 7269635f 74726169 74735f69 6e746567  ric_traits_integ
 0400 65724973 45355f5f 6d696e45 005f494f  erIsE5__minE._IO
 0410 5f736176 655f6261 7365005f 6375725f  _save_base._cur_
 0420 636f6c75 6d6e0074 79706564 6566205f  column.typedef _
 0430 5f76615f 6c697374 5f746167 205f5f76  _va_list_tag __v
 0440 615f6c69 73745f74 6167005f 5f776368  a_list_tag.__wch
 0450 00776373 63707900 77696e74 5f740062  .wcscpy.wint_t.b
 0460 6f6f6c00 5f6c6f63 6b007763 73636174  ool._lock.wcscat
 0470 005f666c 61677332 00696e74 5f6e5f63  ._flags2.int_n_c
 0480 735f7072 65636564 65730073 65746c6f  s_precedes.setlo
 0490 63616c65 00737464 6f757400 7763736e  cale.stdout.wcsn
 04a0 636d7000 77637378 66726d00 77637374  cmp.wcsxfrm.wcst
 04b0 6f6c6400 7763746f 62005f5f 676e755f  old.wctob.__gnu_
 04c0 64656275 67007763 73746f6c 6c00746d  debug.wcstoll.tm
 04d0 5f6d696e 005f5f69 6f696e69 74007763  _min.__ioinit.wc
 04e0 7373706e 00746d5f 79646179 00776d65  sspn.tm_yday.wme
 04f0 6d636d70 00767377 7072696e 7466005f  mcmp.vswprintf._
 0500 494f5f77 72697465 5f656e64 00776373  IO_write_end.wcs
 0510 72746f6d 6273005f 5f69735f 7369676e  rtombs.__is_sign
 0520 65640077 6d656d63 68720074 6d5f686f  ed.wmemchr.tm_ho
 0530 7572005f 494f5f6c 6f636b5f 74005f49  ur._IO_lock_t._I
 0540 4f5f4649 4c450047 4e552043 2b2b2034  O_FILE.GNU C++ 4
 0550 2e362e33 005f5a4e 395f5f67 6e755f63  .6.3._ZN9__gnu_c
 0560 78783234 5f5f6e75 6d657269 635f7472  xx24__numeric_tr
 0570 61697473 5f696e74 65676572 49694535  aits_integerIiE5
 0580 5f5f6d61 78450066 6c6f6174 005f706f  __maxE.float._po
 0590 73006670 75747763 00776d65 6d637079  s.fputwc.wmemcpy
 05a0 005f6d61 726b6572 73006670 75747773  ._markers.fputws
 05b0 00756e73 69676e65 64206368 6172005f  .unsigned char._
 05c0 5f776368 62006d62 7372746f 77637300  _wchb.mbsrtowcs.
 05d0 6d61696e 2e637070 00776373 746f756c  main.cpp.wcstoul
 05e0 005f5f46 494c4500 6d62726c 656e005f  .__FILE.mbrlen._
 05f0 76746162 6c655f6f 66667365 74005f5a  vtable_offset._Z
 0600 4e395f5f 676e755f 63787832 345f5f6e  N9__gnu_cxx24__n
 0610 756d6572 69635f74 72616974 735f696e  umeric_traits_in
 0620 74656765 72496345 355f5f6d 61784500  tegerIcE5__maxE.
 0630 7265675f 73617665 5f617265 6100746d  reg_save_area.tm
 0640 5f676d74 6f666600 77637274 6f6d6200  _gmtoff.wcrtomb.
 0650 6d6f6e5f 74686f75 73616e64 735f7365  mon_thousands_se
 0660 70007763 73746f66 005f5f63 6f756e74  p.wcstof.__count
 0670 00746d5f 77646179 00776374 72616e73  .tm_wday.wctrans
 0680 5f74005f 5f6e756d 65726963 5f747261  _t.__numeric_tra
 0690 6974735f 696e7465 6765723c 696e743e  its_integer<int>
 06a0 00676574 77636861 7200696e 745f705f  .getwchar.int_p_
 06b0 7369676e 5f706f73 6e005f5f 6e756d65  sign_posn.__nume
 06c0 7269635f 74726169 74735f69 6e746567  ric_traits_integ
 06d0 65723c73 686f7274 20696e74 3e006c6f  er<short int>.lo
 06e0 6e672064 6f75626c 65005f5f 6e756d65  ng double.__nume
 06f0 7269635f 74726169 74735f69 6e746567  ric_traits_integ
 0700 65723c6c 6f6e6720 696e743e 00776373  er<long int>.wcs
 0710 636d7000 5f535f73 796e6365 645f7769  cmp._S_synced_wi
 0720 74685f73 7464696f 005f5f64 65627567  th_stdio.__debug
 0730 005f5f69 6e743332 5f740069 6f735f62  .__int32_t.ios_b
 0740 61736500 5f494f5f 72656164 5f656e64  ase._IO_read_end
 0750 005f6e65 7874005f 5f6f6666 36345f74  ._next.__off64_t
 0760 00666765 74777300 5f5f7661 6c756500  .fgetws.__value.
 0770 5f494f5f 72656164 5f626173 65005f49  _IO_read_base._I
 0780 4f5f7361 76655f65 6e64002f 686f6d65  O_save_end./home
 0790 2f79657a 686f7568 61692f70 726f6772  /yezhouhai/progr
 07a0 616d2f68 6561702d 6f626a65 6374005f  am/heap-object._
 07b0 5f666d74 00667769 64650074 6d5f6d64  _fmt.fwide.tm_md
 07c0 61790070 74726469 66665f74 005f5f70  ay.ptrdiff_t.__p
 07d0 61643100 5f5f7061 6432005f 5f706164  ad1.__pad2.__pad
 07e0 33005f5f 70616434 0031315f 5f6d6273  3.__pad4.11__mbs
 07f0 74617465 5f740069 6e745f6e 5f736967  tate_t.int_n_sig
 0800 6e5f706f 736e0075 6e676574 7763005f  n_posn.ungetwc._
 0810 756e7573 65643200 746d5f73 65630070  unused2.tm_sec.p
 0820 75747763 68617200 7763736e 63707900  utwchar.wcsncpy.
 0830 5f6d6f64 65007763 736e6361 74007677  _mode.wcsncat.vw
 0840 7072696e 7466005f 494f5f62 61636b75  printf._IO_backu
 0850 705f6261 73650066 705f6f66 66736574  p_base.fp_offset
 0860 00696e74 5f667261 635f6469 67697473  .int_frac_digits
 0870 005f5a4e 395f5f67 6e755f63 78783234  ._ZN9__gnu_cxx24
 0880 5f5f6e75 6d657269 635f7472 61697473  __numeric_traits
 0890 5f696e74 65676572 496d4538 5f5f6469  _integerImE8__di
 08a0 67697473 45006172 67630077 6373746f  gitsE.argc.wcsto
 08b0 756c6c00 66676574 77630069 6e745f6e  ull.fgetwc.int_n
 08c0 5f736570 5f62795f 73706163 65005f47  _sep_by_space._G
 08d0 4c4f4241 4c5f5f73 75625f49 5f6d6169  LOBAL__sub_I_mai
 08e0 6e006d62 72746f77 63005f6f 6c645f6f  n.mbrtowc._old_o
 08f0 66667365 74005f5f 7072696f 72697479  ffset.__priority
 0900 00617267 76005f49 4f5f7772 6974655f  .argv._IO_write_
 0910 62617365 005f5f64 736f5f68 616e646c  base.__dso_handl
 0920 65005f5f 6e756d65 7269635f 74726169  e.__numeric_trai
 0930 74735f69 6e746567 65723c63 6861723e  ts_integer<char>
 0940 005f5f6d 6178005f 5f676e75 5f637878  .__max.__gnu_cxx
 0950 00                                   .               
Contents of section .debug_loc:
 0000 f0084000 00000000 03094000 00000000  ..@.......@.....
 0010 01005500 00000000 00000000 00000000  ..U.............
 0020 000000f0 08400000 00000003 09400000  .....@.......@..
 0030 00000001 00550000 00000000 00000000  .....U..........
 0040 00000000 0000f008 40000000 00000309  ........@.......
 0050 40000000 00000300 75109f00 00000000  @.......u.......
 0060 00000000 00000000 000000f8 08400000  .............@..
 0070 00000003 09400000 00000001 00550000  .....@.......U..
 0080 00000000 00000000 00000000 00001009  ................
 0090 40000000 00001b09 40000000 00000100  @.......@.......
 00a0 55000000 00000000 00000000 00000000  U...............
 00b0 00100940 00000000 001b0940 00000000  ...@.......@....
 00c0 00010055 00000000 00000000 00000000  ...U............
 00d0 00000000 20094000 00000000 2b094000  .... .@.....+.@.
 00e0 00000000 01005500 00000000 00000000  ......U.........
 00f0 00000000 00000020 09400000 0000002b  ....... .@.....+
 0100 09400000 00000001 00550000 00000000  .@.......U......
 0110 00000000 00000000 00005007 40000000  ..........P.@...
 0120 00005407 40000000 00000200 77085407  ..T.@.......w.T.
 0130 40000000 00009c07 40000000 00000200  @.......@.......
 0140 77109c07 40000000 00009d07 40000000  w...@.......@...
 0150 00000200 77080000 00000000 00000000  ....w...........
 0160 00000000 00005007 40000000 00005907  ......P.@.....Y.
 0170 40000000 00000100 55000000 00000000  @.......U.......
 0180 00000000 00000000 00500740 00000000  .........P.@....
 0190 005d0740 00000000 00010054 00000000  .].@.......T....
 01a0 00000000 00000000 00000000 7f074000  ..............@.
 01b0 00000000 91074000 00000000 01005091  ......@.......P.
 01c0 07400000 00000095 07400000 00000001  .@.......@......
 01d0 00510000 00000000 00000000 00000000  .Q..............
 01e0 00007f07 40000000 00009507 40000000  ....@.......@...
 01f0 00000100 52000000 00000000 00000000  ....R...........
 0200 00000000 00700740 00000000 00910740  .....p.@.......@
 0210 00000000 00010050 91074000 00000000  .......P..@.....
 0220 95074000 00000000 01005100 00000000  ..@.......Q.....
 0230 00000000 00000000 000000a0 07400000  .............@..
 0240 000000a4 07400000 00000002 007708a4  .....@.......w..
 0250 07400000 000000c1 07400000 00000002  .@.......@......
 0260 007710c1 07400000 000000c6 07400000  .w...@.......@..
 0270 00000002 00770800 00000000 00000000  .....w..........
 0280 00000000 000000                      .......         
Contents of section .debug_ranges:
 0000 5e074000 00000000 62074000 00000000  ^.@.....b.@.....
 0010 7f074000 00000000 96074000 00000000  ..@.......@.....
 0020 00000000 00000000 00000000 00000000  ................
 0030 a4074000 00000000 bd074000 00000000  ..@.......@.....
 0040 c1074000 00000000 c6074000 00000000  ..@.......@.....
 0050 00000000 00000000 00000000 00000000  ................
 0060 a0084000 00000000 a8084000 00000000  ..@.......@.....
 0070 b0084000 00000000 b8084000 00000000  ..@.......@.....
 0080 c0084000 00000000 c9084000 00000000  ..@.......@.....
 0090 d0084000 00000000 e0084000 00000000  ..@.......@.....
 00a0 e0084000 00000000 e6084000 00000000  ..@.......@.....
 00b0 f0084000 00000000 04094000 00000000  ..@.......@.....
 00c0 10094000 00000000 1c094000 00000000  ..@.......@.....
 00d0 20094000 00000000 2c094000 00000000   .@.....,.@.....
 00e0 50074000 00000000 9d074000 00000000  P.@.......@.....
 00f0 a0074000 00000000 c6074000 00000000  ..@.......@.....
 0100 00000000 00000000 00000000 00000000  ................

Disassembly of section .init:

0000000000400690 <_init>:
  400690:	48 83 ec 08          	sub    $0x8,%rsp
  400694:	48 8b 05 45 09 20 00 	mov    0x200945(%rip),%rax        # 600fe0 <_DYNAMIC+0x1c0>
  40069b:	48 85 c0             	test   %rax,%rax
  40069e:	74 05                	je     4006a5 <_init+0x15>
  4006a0:	e8 2b 00 00 00       	callq  4006d0 <__gmon_start__@plt>
  4006a5:	e8 c6 01 00 00       	callq  400870 <frame_dummy>
  4006aa:	e8 21 03 00 00       	callq  4009d0 <__do_global_ctors_aux>
  4006af:	48 83 c4 08          	add    $0x8,%rsp
  4006b3:	c3                   	retq   

Disassembly of section .plt:

00000000004006c0 <__gmon_start__@plt-0x10>:
  4006c0:	ff 35 2a 09 20 00    	pushq  0x20092a(%rip)        # 600ff0 <_GLOBAL_OFFSET_TABLE_+0x8>
  4006c6:	ff 25 2c 09 20 00    	jmpq   *0x20092c(%rip)        # 600ff8 <_GLOBAL_OFFSET_TABLE_+0x10>
  4006cc:	0f 1f 40 00          	nopl   0x0(%rax)

00000000004006d0 <__gmon_start__@plt>:
  4006d0:	ff 25 2a 09 20 00    	jmpq   *0x20092a(%rip)        # 601000 <_GLOBAL_OFFSET_TABLE_+0x18>
  4006d6:	68 00 00 00 00       	pushq  $0x0
  4006db:	e9 e0 ff ff ff       	jmpq   4006c0 <_init+0x30>

00000000004006e0 <_ZdlPv@plt>:
  4006e0:	ff 25 22 09 20 00    	jmpq   *0x200922(%rip)        # 601008 <_GLOBAL_OFFSET_TABLE_+0x20>
  4006e6:	68 01 00 00 00       	pushq  $0x1
  4006eb:	e9 d0 ff ff ff       	jmpq   4006c0 <_init+0x30>

00000000004006f0 <__printf_chk@plt>:
  4006f0:	ff 25 1a 09 20 00    	jmpq   *0x20091a(%rip)        # 601010 <_GLOBAL_OFFSET_TABLE_+0x28>
  4006f6:	68 02 00 00 00       	pushq  $0x2
  4006fb:	e9 c0 ff ff ff       	jmpq   4006c0 <_init+0x30>

0000000000400700 <_ZNSt8ios_base4InitC1Ev@plt>:
  400700:	ff 25 12 09 20 00    	jmpq   *0x200912(%rip)        # 601018 <_GLOBAL_OFFSET_TABLE_+0x30>
  400706:	68 03 00 00 00       	pushq  $0x3
  40070b:	e9 b0 ff ff ff       	jmpq   4006c0 <_init+0x30>

0000000000400710 <__libc_start_main@plt>:
  400710:	ff 25 0a 09 20 00    	jmpq   *0x20090a(%rip)        # 601020 <_GLOBAL_OFFSET_TABLE_+0x38>
  400716:	68 04 00 00 00       	pushq  $0x4
  40071b:	e9 a0 ff ff ff       	jmpq   4006c0 <_init+0x30>

0000000000400720 <__cxa_atexit@plt>:
  400720:	ff 25 02 09 20 00    	jmpq   *0x200902(%rip)        # 601028 <_GLOBAL_OFFSET_TABLE_+0x40>
  400726:	68 05 00 00 00       	pushq  $0x5
  40072b:	e9 90 ff ff ff       	jmpq   4006c0 <_init+0x30>

0000000000400730 <_ZNSt8ios_base4InitD1Ev@plt>:
  400730:	ff 25 fa 08 20 00    	jmpq   *0x2008fa(%rip)        # 601030 <_GLOBAL_OFFSET_TABLE_+0x48>
  400736:	68 06 00 00 00       	pushq  $0x6
  40073b:	e9 80 ff ff ff       	jmpq   4006c0 <_init+0x30>

0000000000400740 <_Znwm@plt>:
  400740:	ff 25 f2 08 20 00    	jmpq   *0x2008f2(%rip)        # 601038 <_GLOBAL_OFFSET_TABLE_+0x50>
  400746:	68 07 00 00 00       	pushq  $0x7
  40074b:	e9 70 ff ff ff       	jmpq   4006c0 <_init+0x30>

Disassembly of section .text:

0000000000400750 <main>:
    virtual ~C() {};
};


int main(int argc,char **argv)
{
  400750:	48 83 ec 08          	sub    $0x8,%rsp
    C *c = new C();
  400754:	bf 20 00 00 00       	mov    $0x20,%edi
  400759:	e8 e2 ff ff ff       	callq  400740 <_Znwm@plt>
}

__fortify_function int
printf (const char *__restrict __fmt, ...)
{
  return __printf_chk (__USE_FORTIFY_LEVEL - 1, __fmt, __va_arg_pack ());
  40075e:	48 8d 48 10          	lea    0x10(%rax),%rcx
  400762:	c7 40 08 00 00 00 00 	movl   $0x0,0x8(%rax)
  400769:	c7 40 18 00 00 00 00 	movl   $0x0,0x18(%rax)
    int y;
public:
virtual ~B() {};
};

class C: public A, public B {
  400770:	48 c7 00 90 0a 40 00 	movq   $0x400a90,(%rax)
  400777:	48 c7 40 10 b0 0a 40 	movq   $0x400ab0,0x10(%rax)
  40077e:	00 
  40077f:	49 89 c0             	mov    %rax,%r8
  400782:	48 89 c2             	mov    %rax,%rdx
  400785:	be 24 0a 40 00       	mov    $0x400a24,%esi
  40078a:	bf 01 00 00 00       	mov    $0x1,%edi
  40078f:	31 c0                	xor    %eax,%eax
  400791:	e8 5a ff ff ff       	callq  4006f0 <__printf_chk@plt>
    B *b = c;
//  std::string querystring = "SELECT * FROM EMC_MemoryModule WHERE EMC_MemoryModule.EMCMemoryBrdSlotNum = 0";
//  std::cout << getClassNameFromQuerystring(querystring) << "hello" <<std::endl;
    printf("a = %08x b = %08x c = %08x\n", a, b, c);
  return 0;
}
  400796:	31 c0                	xor    %eax,%eax
  400798:	48 83 c4 08          	add    $0x8,%rsp
  40079c:	c3                   	retq   
  40079d:	0f 1f 00             	nopl   (%rax)

00000000004007a0 <_GLOBAL__sub_I_main>:
  4007a0:	48 83 ec 08          	sub    $0x8,%rsp
  extern wostream wclog;	/// Linked to standard error (buffered)
#endif
  //@}

  // For construction of filebuffers for cout, cin, cerr, clog et. al.
  static ios_base::Init __ioinit;
  4007a4:	bf 28 11 60 00       	mov    $0x601128,%edi
  4007a9:	e8 52 ff ff ff       	callq  400700 <_ZNSt8ios_base4InitC1Ev@plt>
  4007ae:	ba 48 10 60 00       	mov    $0x601048,%edx
  4007b3:	be 28 11 60 00       	mov    $0x601128,%esi
  4007b8:	bf 30 07 40 00       	mov    $0x400730,%edi
  4007bd:	48 83 c4 08          	add    $0x8,%rsp
  4007c1:	e9 5a ff ff ff       	jmpq   400720 <__cxa_atexit@plt>
  4007c6:	90                   	nop
  4007c7:	90                   	nop

00000000004007c8 <_start>:
  4007c8:	31 ed                	xor    %ebp,%ebp
  4007ca:	49 89 d1             	mov    %rdx,%r9
  4007cd:	5e                   	pop    %rsi
  4007ce:	48 89 e2             	mov    %rsp,%rdx
  4007d1:	48 83 e4 f0          	and    $0xfffffffffffffff0,%rsp
  4007d5:	50                   	push   %rax
  4007d6:	54                   	push   %rsp
  4007d7:	49 c7 c0 c0 09 40 00 	mov    $0x4009c0,%r8
  4007de:	48 c7 c1 30 09 40 00 	mov    $0x400930,%rcx
  4007e5:	48 c7 c7 50 07 40 00 	mov    $0x400750,%rdi
  4007ec:	e8 1f ff ff ff       	callq  400710 <__libc_start_main@plt>
  4007f1:	f4                   	hlt    
  4007f2:	66 90                	xchg   %ax,%ax
  4007f4:	90                   	nop
  4007f5:	90                   	nop
  4007f6:	90                   	nop
  4007f7:	90                   	nop
  4007f8:	90                   	nop
  4007f9:	90                   	nop
  4007fa:	90                   	nop
  4007fb:	90                   	nop
  4007fc:	90                   	nop
  4007fd:	90                   	nop
  4007fe:	90                   	nop
  4007ff:	90                   	nop

0000000000400800 <__do_global_dtors_aux>:
  400800:	55                   	push   %rbp
  400801:	48 89 e5             	mov    %rsp,%rbp
  400804:	53                   	push   %rbx
  400805:	48 83 ec 08          	sub    $0x8,%rsp
  400809:	80 3d 08 09 20 00 00 	cmpb   $0x0,0x200908(%rip)        # 601118 <completed.6531>
  400810:	75 4b                	jne    40085d <__do_global_dtors_aux+0x5d>
  400812:	bb 10 0e 60 00       	mov    $0x600e10,%ebx
  400817:	48 8b 05 02 09 20 00 	mov    0x200902(%rip),%rax        # 601120 <dtor_idx.6533>
  40081e:	48 81 eb 08 0e 60 00 	sub    $0x600e08,%rbx
  400825:	48 c1 fb 03          	sar    $0x3,%rbx
  400829:	48 83 eb 01          	sub    $0x1,%rbx
  40082d:	48 39 d8             	cmp    %rbx,%rax
  400830:	73 24                	jae    400856 <__do_global_dtors_aux+0x56>
  400832:	66 0f 1f 44 00 00    	nopw   0x0(%rax,%rax,1)
  400838:	48 83 c0 01          	add    $0x1,%rax
  40083c:	48 89 05 dd 08 20 00 	mov    %rax,0x2008dd(%rip)        # 601120 <dtor_idx.6533>
  400843:	ff 14 c5 08 0e 60 00 	callq  *0x600e08(,%rax,8)
  40084a:	48 8b 05 cf 08 20 00 	mov    0x2008cf(%rip),%rax        # 601120 <dtor_idx.6533>
  400851:	48 39 d8             	cmp    %rbx,%rax
  400854:	72 e2                	jb     400838 <__do_global_dtors_aux+0x38>
  400856:	c6 05 bb 08 20 00 01 	movb   $0x1,0x2008bb(%rip)        # 601118 <completed.6531>
  40085d:	48 83 c4 08          	add    $0x8,%rsp
  400861:	5b                   	pop    %rbx
  400862:	5d                   	pop    %rbp
  400863:	c3                   	retq   
  400864:	66 66 66 2e 0f 1f 84 	data32 data32 nopw %cs:0x0(%rax,%rax,1)
  40086b:	00 00 00 00 00 

0000000000400870 <frame_dummy>:
  400870:	48 83 3d a0 05 20 00 	cmpq   $0x0,0x2005a0(%rip)        # 600e18 <__JCR_END__>
  400877:	00 
  400878:	55                   	push   %rbp
  400879:	48 89 e5             	mov    %rsp,%rbp
  40087c:	74 12                	je     400890 <frame_dummy+0x20>
  40087e:	b8 00 00 00 00       	mov    $0x0,%eax
  400883:	48 85 c0             	test   %rax,%rax
  400886:	74 08                	je     400890 <frame_dummy+0x20>
  400888:	5d                   	pop    %rbp
  400889:	bf 18 0e 60 00       	mov    $0x600e18,%edi
  40088e:	ff e0                	jmpq   *%rax
  400890:	5d                   	pop    %rbp
  400891:	c3                   	retq   
  400892:	90                   	nop
  400893:	90                   	nop
  400894:	90                   	nop
  400895:	90                   	nop
  400896:	90                   	nop
  400897:	90                   	nop
  400898:	90                   	nop
  400899:	90                   	nop
  40089a:	90                   	nop
  40089b:	90                   	nop
  40089c:	90                   	nop
  40089d:	90                   	nop
  40089e:	90                   	nop
  40089f:	90                   	nop

00000000004008a0 <_ZN1AD1Ev>:

class A {
private:
        int m;
public:
virtual ~A() {};
  4008a0:	48 c7 07 50 0a 40 00 	movq   $0x400a50,(%rdi)
  4008a7:	c3                   	retq   
  4008a8:	90                   	nop
  4008a9:	90                   	nop
  4008aa:	90                   	nop
  4008ab:	90                   	nop
  4008ac:	90                   	nop
  4008ad:	90                   	nop
  4008ae:	90                   	nop
  4008af:	90                   	nop

00000000004008b0 <_ZN1BD1Ev>:

class B {
private:
    int y;
public:
virtual ~B() {};
  4008b0:	48 c7 07 70 0a 40 00 	movq   $0x400a70,(%rdi)
  4008b7:	c3                   	retq   
  4008b8:	90                   	nop
  4008b9:	90                   	nop
  4008ba:	90                   	nop
  4008bb:	90                   	nop
  4008bc:	90                   	nop
  4008bd:	90                   	nop
  4008be:	90                   	nop
  4008bf:	90                   	nop

00000000004008c0 <_ZThn16_N1CD1Ev>:
  4008c0:	48 83 ef 10          	sub    $0x10,%rdi
  4008c4:	e9 07 00 00 00       	jmpq   4008d0 <_ZN1CD1Ev>
  4008c9:	90                   	nop
  4008ca:	90                   	nop
  4008cb:	90                   	nop
  4008cc:	90                   	nop
  4008cd:	90                   	nop
  4008ce:	90                   	nop
  4008cf:	90                   	nop

00000000004008d0 <_ZN1CD1Ev>:
  4008d0:	48 c7 47 10 70 0a 40 	movq   $0x400a70,0x10(%rdi)
  4008d7:	00 

class A {
private:
        int m;
public:
virtual ~A() {};
  4008d8:	48 c7 07 50 0a 40 00 	movq   $0x400a50,(%rdi)
virtual ~B() {};
};

class C: public A, public B {
    public:
    virtual ~C() {};
  4008df:	c3                   	retq   

00000000004008e0 <_ZThn16_N1CD0Ev>:
  4008e0:	48 83 ef 10          	sub    $0x10,%rdi
  4008e4:	eb 0a                	jmp    4008f0 <_ZN1CD0Ev>
  4008e6:	66 2e 0f 1f 84 00 00 	nopw   %cs:0x0(%rax,%rax,1)
  4008ed:	00 00 00 

00000000004008f0 <_ZN1CD0Ev>:

class B {
private:
    int y;
public:
virtual ~B() {};
  4008f0:	48 c7 47 10 70 0a 40 	movq   $0x400a70,0x10(%rdi)
  4008f7:	00 

class A {
private:
        int m;
public:
virtual ~A() {};
  4008f8:	48 c7 07 50 0a 40 00 	movq   $0x400a50,(%rdi)
virtual ~B() {};
};

class C: public A, public B {
    public:
    virtual ~C() {};
  4008ff:	e9 dc fd ff ff       	jmpq   4006e0 <_ZdlPv@plt>
  400904:	90                   	nop
  400905:	90                   	nop
  400906:	90                   	nop
  400907:	90                   	nop
  400908:	90                   	nop
  400909:	90                   	nop
  40090a:	90                   	nop
  40090b:	90                   	nop
  40090c:	90                   	nop
  40090d:	90                   	nop
  40090e:	90                   	nop
  40090f:	90                   	nop

0000000000400910 <_ZN1BD0Ev>:

class B {
private:
    int y;
public:
virtual ~B() {};
  400910:	48 c7 07 70 0a 40 00 	movq   $0x400a70,(%rdi)
  400917:	e9 c4 fd ff ff       	jmpq   4006e0 <_ZdlPv@plt>
  40091c:	90                   	nop
  40091d:	90                   	nop
  40091e:	90                   	nop
  40091f:	90                   	nop

0000000000400920 <_ZN1AD0Ev>:

class A {
private:
        int m;
public:
virtual ~A() {};
  400920:	48 c7 07 50 0a 40 00 	movq   $0x400a50,(%rdi)
  400927:	e9 b4 fd ff ff       	jmpq   4006e0 <_ZdlPv@plt>
  40092c:	90                   	nop
  40092d:	90                   	nop
  40092e:	90                   	nop
  40092f:	90                   	nop

0000000000400930 <__libc_csu_init>:
  400930:	48 89 6c 24 d8       	mov    %rbp,-0x28(%rsp)
  400935:	4c 89 64 24 e0       	mov    %r12,-0x20(%rsp)
  40093a:	48 8d 2d b7 04 20 00 	lea    0x2004b7(%rip),%rbp        # 600df8 <__init_array_end>
  400941:	4c 8d 25 a8 04 20 00 	lea    0x2004a8(%rip),%r12        # 600df0 <__init_array_start>
  400948:	48 89 5c 24 d0       	mov    %rbx,-0x30(%rsp)
  40094d:	4c 89 6c 24 e8       	mov    %r13,-0x18(%rsp)
  400952:	4c 89 74 24 f0       	mov    %r14,-0x10(%rsp)
  400957:	4c 89 7c 24 f8       	mov    %r15,-0x8(%rsp)
  40095c:	48 83 ec 38          	sub    $0x38,%rsp
  400960:	4c 29 e5             	sub    %r12,%rbp
  400963:	41 89 ff             	mov    %edi,%r15d
  400966:	49 89 f6             	mov    %rsi,%r14
  400969:	48 c1 fd 03          	sar    $0x3,%rbp
  40096d:	49 89 d5             	mov    %rdx,%r13
  400970:	31 db                	xor    %ebx,%ebx
  400972:	e8 19 fd ff ff       	callq  400690 <_init>
  400977:	48 85 ed             	test   %rbp,%rbp
  40097a:	74 1a                	je     400996 <__libc_csu_init+0x66>
  40097c:	0f 1f 40 00          	nopl   0x0(%rax)
  400980:	4c 89 ea             	mov    %r13,%rdx
  400983:	4c 89 f6             	mov    %r14,%rsi
  400986:	44 89 ff             	mov    %r15d,%edi
  400989:	41 ff 14 dc          	callq  *(%r12,%rbx,8)
  40098d:	48 83 c3 01          	add    $0x1,%rbx
  400991:	48 39 eb             	cmp    %rbp,%rbx
  400994:	75 ea                	jne    400980 <__libc_csu_init+0x50>
  400996:	48 8b 5c 24 08       	mov    0x8(%rsp),%rbx
  40099b:	48 8b 6c 24 10       	mov    0x10(%rsp),%rbp
  4009a0:	4c 8b 64 24 18       	mov    0x18(%rsp),%r12
  4009a5:	4c 8b 6c 24 20       	mov    0x20(%rsp),%r13
  4009aa:	4c 8b 74 24 28       	mov    0x28(%rsp),%r14
  4009af:	4c 8b 7c 24 30       	mov    0x30(%rsp),%r15
  4009b4:	48 83 c4 38          	add    $0x38,%rsp
  4009b8:	c3                   	retq   
  4009b9:	0f 1f 80 00 00 00 00 	nopl   0x0(%rax)

00000000004009c0 <__libc_csu_fini>:
  4009c0:	f3 c3                	repz retq 
  4009c2:	90                   	nop
  4009c3:	90                   	nop
  4009c4:	90                   	nop
  4009c5:	90                   	nop
  4009c6:	90                   	nop
  4009c7:	90                   	nop
  4009c8:	90                   	nop
  4009c9:	90                   	nop
  4009ca:	90                   	nop
  4009cb:	90                   	nop
  4009cc:	90                   	nop
  4009cd:	90                   	nop
  4009ce:	90                   	nop
  4009cf:	90                   	nop

00000000004009d0 <__do_global_ctors_aux>:
  4009d0:	55                   	push   %rbp
  4009d1:	48 89 e5             	mov    %rsp,%rbp
  4009d4:	53                   	push   %rbx
  4009d5:	48 83 ec 08          	sub    $0x8,%rsp
  4009d9:	48 8b 05 18 04 20 00 	mov    0x200418(%rip),%rax        # 600df8 <__init_array_end>
  4009e0:	48 83 f8 ff          	cmp    $0xffffffffffffffff,%rax
  4009e4:	74 19                	je     4009ff <__do_global_ctors_aux+0x2f>
  4009e6:	bb f8 0d 60 00       	mov    $0x600df8,%ebx
  4009eb:	0f 1f 44 00 00       	nopl   0x0(%rax,%rax,1)
  4009f0:	48 83 eb 08          	sub    $0x8,%rbx
  4009f4:	ff d0                	callq  *%rax
  4009f6:	48 8b 03             	mov    (%rbx),%rax
  4009f9:	48 83 f8 ff          	cmp    $0xffffffffffffffff,%rax
  4009fd:	75 f1                	jne    4009f0 <__do_global_ctors_aux+0x20>
  4009ff:	48 83 c4 08          	add    $0x8,%rsp
  400a03:	5b                   	pop    %rbx
  400a04:	5d                   	pop    %rbp
  400a05:	c3                   	retq   
  400a06:	90                   	nop
  400a07:	90                   	nop

Disassembly of section .fini:

0000000000400a08 <_fini>:
  400a08:	48 83 ec 08          	sub    $0x8,%rsp
  400a0c:	e8 ef fd ff ff       	callq  400800 <__do_global_dtors_aux>
  400a11:	48 83 c4 08          	add    $0x8,%rsp
  400a15:	c3                   	retq   
