
test:     file format elf64-x86-64


Disassembly of section .init:

00000000004006f8 <_init>:
_init():
  4006f8:	48 83 ec 08          	sub    $0x8,%rsp
  4006fc:	48 8b 05 dd 08 20 00 	mov    0x2008dd(%rip),%rax        # 600fe0 <_DYNAMIC+0x1c0>
  400703:	48 85 c0             	test   %rax,%rax
  400706:	74 05                	je     40070d <_init+0x15>
  400708:	e8 33 00 00 00       	callq  400740 <__gmon_start__@plt>
  40070d:	e8 6e 01 00 00       	callq  400880 <frame_dummy>
  400712:	e8 69 03 00 00       	callq  400a80 <__do_global_ctors_aux>
  400717:	48 83 c4 08          	add    $0x8,%rsp
  40071b:	c3                   	retq   

Disassembly of section .plt:

0000000000400720 <inet_pton@plt-0x10>:
  400720:	ff 35 ca 08 20 00    	pushq  0x2008ca(%rip)        # 600ff0 <_GLOBAL_OFFSET_TABLE_+0x8>
  400726:	ff 25 cc 08 20 00    	jmpq   *0x2008cc(%rip)        # 600ff8 <_GLOBAL_OFFSET_TABLE_+0x10>
  40072c:	0f 1f 40 00          	nopl   0x0(%rax)

0000000000400730 <inet_pton@plt>:
  400730:	ff 25 ca 08 20 00    	jmpq   *0x2008ca(%rip)        # 601000 <_GLOBAL_OFFSET_TABLE_+0x18>
  400736:	68 00 00 00 00       	pushq  $0x0
  40073b:	e9 e0 ff ff ff       	jmpq   400720 <_init+0x28>

0000000000400740 <__gmon_start__@plt>:
  400740:	ff 25 c2 08 20 00    	jmpq   *0x2008c2(%rip)        # 601008 <_GLOBAL_OFFSET_TABLE_+0x20>
  400746:	68 01 00 00 00       	pushq  $0x1
  40074b:	e9 d0 ff ff ff       	jmpq   400720 <_init+0x28>

0000000000400750 <_ZNKSs5c_strEv@plt>:
  400750:	ff 25 ba 08 20 00    	jmpq   *0x2008ba(%rip)        # 601010 <_GLOBAL_OFFSET_TABLE_+0x28>
  400756:	68 02 00 00 00       	pushq  $0x2
  40075b:	e9 c0 ff ff ff       	jmpq   400720 <_init+0x28>

0000000000400760 <_ZNSt8ios_base4InitC1Ev@plt>:
  400760:	ff 25 b2 08 20 00    	jmpq   *0x2008b2(%rip)        # 601018 <_GLOBAL_OFFSET_TABLE_+0x30>
  400766:	68 03 00 00 00       	pushq  $0x3
  40076b:	e9 b0 ff ff ff       	jmpq   400720 <_init+0x28>

0000000000400770 <__libc_start_main@plt>:
  400770:	ff 25 aa 08 20 00    	jmpq   *0x2008aa(%rip)        # 601020 <_GLOBAL_OFFSET_TABLE_+0x38>
  400776:	68 04 00 00 00       	pushq  $0x4
  40077b:	e9 a0 ff ff ff       	jmpq   400720 <_init+0x28>

0000000000400780 <__cxa_atexit@plt>:
  400780:	ff 25 a2 08 20 00    	jmpq   *0x2008a2(%rip)        # 601028 <_GLOBAL_OFFSET_TABLE_+0x40>
  400786:	68 05 00 00 00       	pushq  $0x5
  40078b:	e9 90 ff ff ff       	jmpq   400720 <_init+0x28>

0000000000400790 <_ZNSt8ios_base4InitD1Ev@plt>:
  400790:	ff 25 9a 08 20 00    	jmpq   *0x20089a(%rip)        # 601030 <_GLOBAL_OFFSET_TABLE_+0x48>
  400796:	68 06 00 00 00       	pushq  $0x6
  40079b:	e9 80 ff ff ff       	jmpq   400720 <_init+0x28>

00000000004007a0 <_ZNSolsEj@plt>:
  4007a0:	ff 25 92 08 20 00    	jmpq   *0x200892(%rip)        # 601038 <_GLOBAL_OFFSET_TABLE_+0x50>
  4007a6:	68 07 00 00 00       	pushq  $0x7
  4007ab:	e9 70 ff ff ff       	jmpq   400720 <_init+0x28>

00000000004007b0 <__stack_chk_fail@plt>:
  4007b0:	ff 25 8a 08 20 00    	jmpq   *0x20088a(%rip)        # 601040 <_GLOBAL_OFFSET_TABLE_+0x58>
  4007b6:	68 08 00 00 00       	pushq  $0x8
  4007bb:	e9 60 ff ff ff       	jmpq   400720 <_init+0x28>

00000000004007c0 <_ZNSolsEPFRSoS_E@plt>:
  4007c0:	ff 25 82 08 20 00    	jmpq   *0x200882(%rip)        # 601048 <_GLOBAL_OFFSET_TABLE_+0x60>
  4007c6:	68 09 00 00 00       	pushq  $0x9
  4007cb:	e9 50 ff ff ff       	jmpq   400720 <_init+0x28>

00000000004007d0 <_ZSt4endlIcSt11char_traitsIcEERSt13basic_ostreamIT_T0_ES6_@plt>:
  4007d0:	ff 25 7a 08 20 00    	jmpq   *0x20087a(%rip)        # 601050 <_GLOBAL_OFFSET_TABLE_+0x68>
  4007d6:	68 0a 00 00 00       	pushq  $0xa
  4007db:	e9 40 ff ff ff       	jmpq   400720 <_init+0x28>

Disassembly of section .text:

00000000004007e0 <_start>:
_start():
  4007e0:	31 ed                	xor    %ebp,%ebp
  4007e2:	49 89 d1             	mov    %rdx,%r9
  4007e5:	5e                   	pop    %rsi
  4007e6:	48 89 e2             	mov    %rsp,%rdx
  4007e9:	48 83 e4 f0          	and    $0xfffffffffffffff0,%rsp
  4007ed:	50                   	push   %rax
  4007ee:	54                   	push   %rsp
  4007ef:	49 c7 c0 70 0a 40 00 	mov    $0x400a70,%r8
  4007f6:	48 c7 c1 e0 09 40 00 	mov    $0x4009e0,%rcx
  4007fd:	48 c7 c7 3d 09 40 00 	mov    $0x40093d,%rdi
  400804:	e8 67 ff ff ff       	callq  400770 <__libc_start_main@plt>
  400809:	f4                   	hlt    
  40080a:	66 90                	xchg   %ax,%ax
  40080c:	90                   	nop
  40080d:	90                   	nop
  40080e:	90                   	nop
  40080f:	90                   	nop

0000000000400810 <__do_global_dtors_aux>:
__do_global_dtors_aux():
  400810:	55                   	push   %rbp
  400811:	48 89 e5             	mov    %rsp,%rbp
  400814:	53                   	push   %rbx
  400815:	48 83 ec 08          	sub    $0x8,%rsp
  400819:	80 3d 70 09 20 00 00 	cmpb   $0x0,0x200970(%rip)        # 601190 <completed.6531>
  400820:	75 4b                	jne    40086d <__do_global_dtors_aux+0x5d>
  400822:	bb 10 0e 60 00       	mov    $0x600e10,%ebx
  400827:	48 8b 05 6a 09 20 00 	mov    0x20096a(%rip),%rax        # 601198 <dtor_idx.6533>
  40082e:	48 81 eb 08 0e 60 00 	sub    $0x600e08,%rbx
  400835:	48 c1 fb 03          	sar    $0x3,%rbx
  400839:	48 83 eb 01          	sub    $0x1,%rbx
  40083d:	48 39 d8             	cmp    %rbx,%rax
  400840:	73 24                	jae    400866 <__do_global_dtors_aux+0x56>
  400842:	66 0f 1f 44 00 00    	nopw   0x0(%rax,%rax,1)
  400848:	48 83 c0 01          	add    $0x1,%rax
  40084c:	48 89 05 45 09 20 00 	mov    %rax,0x200945(%rip)        # 601198 <dtor_idx.6533>
  400853:	ff 14 c5 08 0e 60 00 	callq  *0x600e08(,%rax,8)
  40085a:	48 8b 05 37 09 20 00 	mov    0x200937(%rip),%rax        # 601198 <dtor_idx.6533>
  400861:	48 39 d8             	cmp    %rbx,%rax
  400864:	72 e2                	jb     400848 <__do_global_dtors_aux+0x38>
  400866:	c6 05 23 09 20 00 01 	movb   $0x1,0x200923(%rip)        # 601190 <completed.6531>
  40086d:	48 83 c4 08          	add    $0x8,%rsp
  400871:	5b                   	pop    %rbx
  400872:	5d                   	pop    %rbp
  400873:	c3                   	retq   
  400874:	66 66 66 2e 0f 1f 84 	data32 data32 nopw %cs:0x0(%rax,%rax,1)
  40087b:	00 00 00 00 00 

0000000000400880 <frame_dummy>:
frame_dummy():
  400880:	48 83 3d 90 05 20 00 	cmpq   $0x0,0x200590(%rip)        # 600e18 <__JCR_END__>
  400887:	00 
  400888:	55                   	push   %rbp
  400889:	48 89 e5             	mov    %rsp,%rbp
  40088c:	74 12                	je     4008a0 <frame_dummy+0x20>
  40088e:	b8 00 00 00 00       	mov    $0x0,%eax
  400893:	48 85 c0             	test   %rax,%rax
  400896:	74 08                	je     4008a0 <frame_dummy+0x20>
  400898:	5d                   	pop    %rbp
  400899:	bf 18 0e 60 00       	mov    $0x600e18,%edi
  40089e:	ff e0                	jmpq   *%rax
  4008a0:	5d                   	pop    %rbp
  4008a1:	c3                   	retq   
  4008a2:	90                   	nop
  4008a3:	90                   	nop

00000000004008a4 <_Z19convertStringToIPv4RKSs>:
_Z19convertStringToIPv4RKSs():
/home/yezhouhai/program/ip2string/main.cpp:9
  4008a4:	55                   	push   %rbp
  4008a5:	48 89 e5             	mov    %rsp,%rbp
  4008a8:	48 83 ec 20          	sub    $0x20,%rsp
  4008ac:	48 89 7d e8          	mov    %rdi,-0x18(%rbp)
/home/yezhouhai/program/ip2string/main.cpp:11
  4008b0:	48 8b 45 e8          	mov    -0x18(%rbp),%rax
  4008b4:	48 89 c7             	mov    %rax,%rdi
  4008b7:	e8 94 fe ff ff       	callq  400750 <_ZNKSs5c_strEv@plt>
  4008bc:	48 8d 55 f0          	lea    -0x10(%rbp),%rdx
  4008c0:	48 89 c6             	mov    %rax,%rsi
  4008c3:	bf 02 00 00 00       	mov    $0x2,%edi
  4008c8:	e8 63 fe ff ff       	callq  400730 <inet_pton@plt>
/home/yezhouhai/program/ip2string/main.cpp:13
  4008cd:	48 8d 45 f0          	lea    -0x10(%rbp),%rax
  4008d1:	8b 00                	mov    (%rax),%eax
/home/yezhouhai/program/ip2string/main.cpp:14
  4008d3:	c9                   	leaveq 
  4008d4:	c3                   	retq   

00000000004008d5 <_Z19convertStringToIPv6RKSsPh>:
_Z19convertStringToIPv6RKSsPh():
/home/yezhouhai/program/ip2string/main.cpp:17
  4008d5:	55                   	push   %rbp
  4008d6:	48 89 e5             	mov    %rsp,%rbp
  4008d9:	48 83 ec 30          	sub    $0x30,%rsp
  4008dd:	48 89 7d d8          	mov    %rdi,-0x28(%rbp)
  4008e1:	48 89 75 d0          	mov    %rsi,-0x30(%rbp)
  4008e5:	64 48 8b 04 25 28 00 	mov    %fs:0x28,%rax
  4008ec:	00 00 
  4008ee:	48 89 45 f8          	mov    %rax,-0x8(%rbp)
  4008f2:	31 c0                	xor    %eax,%eax
/home/yezhouhai/program/ip2string/main.cpp:19
  4008f4:	48 8b 45 d8          	mov    -0x28(%rbp),%rax
  4008f8:	48 89 c7             	mov    %rax,%rdi
  4008fb:	e8 50 fe ff ff       	callq  400750 <_ZNKSs5c_strEv@plt>
  400900:	48 8d 55 e0          	lea    -0x20(%rbp),%rdx
  400904:	48 89 c6             	mov    %rax,%rsi
  400907:	bf 0a 00 00 00       	mov    $0xa,%edi
  40090c:	e8 1f fe ff ff       	callq  400730 <inet_pton@plt>
/home/yezhouhai/program/ip2string/main.cpp:21
  400911:	48 8b 45 d0          	mov    -0x30(%rbp),%rax
  400915:	48 8d 55 e0          	lea    -0x20(%rbp),%rdx
  400919:	48 8b 0a             	mov    (%rdx),%rcx
  40091c:	48 89 08             	mov    %rcx,(%rax)
  40091f:	48 8b 52 08          	mov    0x8(%rdx),%rdx
  400923:	48 89 50 08          	mov    %rdx,0x8(%rax)
/home/yezhouhai/program/ip2string/main.cpp:23
  400927:	48 8b 45 f8          	mov    -0x8(%rbp),%rax
  40092b:	64 48 33 04 25 28 00 	xor    %fs:0x28,%rax
  400932:	00 00 
  400934:	74 05                	je     40093b <_Z19convertStringToIPv6RKSsPh+0x66>
  400936:	e8 75 fe ff ff       	callq  4007b0 <__stack_chk_fail@plt>
  40093b:	c9                   	leaveq 
  40093c:	c3                   	retq   

000000000040093d <main>:
main():
/home/yezhouhai/program/ip2string/main.cpp:26
  40093d:	55                   	push   %rbp
  40093e:	48 89 e5             	mov    %rsp,%rbp
  400941:	48 83 ec 20          	sub    $0x20,%rsp
  400945:	89 7d ec             	mov    %edi,-0x14(%rbp)
  400948:	48 89 75 e0          	mov    %rsi,-0x20(%rbp)
/home/yezhouhai/program/ip2string/main.cpp:39
  40094c:	c7 45 f4 07 87 00 00 	movl   $0x8707,-0xc(%rbp)
/home/yezhouhai/program/ip2string/main.cpp:40
  400953:	c7 45 f8 22 02 00 00 	movl   $0x222,-0x8(%rbp)
/home/yezhouhai/program/ip2string/main.cpp:41
  40095a:	8b 45 f4             	mov    -0xc(%rbp),%eax
  40095d:	ba 00 00 00 00       	mov    $0x0,%edx
  400962:	f7 75 f8             	divl   -0x8(%rbp)
  400965:	89 55 fc             	mov    %edx,-0x4(%rbp)
/home/yezhouhai/program/ip2string/main.cpp:42
  400968:	8b 45 fc             	mov    -0x4(%rbp),%eax
  40096b:	89 c6                	mov    %eax,%esi
  40096d:	bf 80 10 60 00       	mov    $0x601080,%edi
  400972:	e8 29 fe ff ff       	callq  4007a0 <_ZNSolsEj@plt>
  400977:	be d0 07 40 00       	mov    $0x4007d0,%esi
  40097c:	48 89 c7             	mov    %rax,%rdi
  40097f:	e8 3c fe ff ff       	callq  4007c0 <_ZNSolsEPFRSoS_E@plt>
/home/yezhouhai/program/ip2string/main.cpp:43
  400984:	b8 01 00 00 00       	mov    $0x1,%eax
/home/yezhouhai/program/ip2string/main.cpp:44
  400989:	c9                   	leaveq 
  40098a:	c3                   	retq   

000000000040098b <_Z41__static_initialization_and_destruction_0ii>:
__static_initialization_and_destruction_0():
  40098b:	55                   	push   %rbp
  40098c:	48 89 e5             	mov    %rsp,%rbp
  40098f:	48 83 ec 10          	sub    $0x10,%rsp
  400993:	89 7d fc             	mov    %edi,-0x4(%rbp)
  400996:	89 75 f8             	mov    %esi,-0x8(%rbp)
  400999:	83 7d fc 01          	cmpl   $0x1,-0x4(%rbp)
  40099d:	75 2a                	jne    4009c9 <_Z41__static_initialization_and_destruction_0ii+0x3e>
  40099f:	81 7d f8 ff ff 00 00 	cmpl   $0xffff,-0x8(%rbp)
  4009a6:	75 21                	jne    4009c9 <_Z41__static_initialization_and_destruction_0ii+0x3e>
/usr/include/c++/4.6/iostream:75
  4009a8:	bf a0 11 60 00       	mov    $0x6011a0,%edi
  4009ad:	e8 ae fd ff ff       	callq  400760 <_ZNSt8ios_base4InitC1Ev@plt>
  4009b2:	b8 90 07 40 00       	mov    $0x400790,%eax
  4009b7:	ba 60 10 60 00       	mov    $0x601060,%edx
  4009bc:	be a0 11 60 00       	mov    $0x6011a0,%esi
  4009c1:	48 89 c7             	mov    %rax,%rdi
  4009c4:	e8 b7 fd ff ff       	callq  400780 <__cxa_atexit@plt>
/home/yezhouhai/program/ip2string/main.cpp:44
  4009c9:	c9                   	leaveq 
  4009ca:	c3                   	retq   

00000000004009cb <_GLOBAL__sub_I__Z19convertStringToIPv4RKSs>:
_GLOBAL__sub_I__Z19convertStringToIPv4RKSs():
  4009cb:	55                   	push   %rbp
  4009cc:	48 89 e5             	mov    %rsp,%rbp
  4009cf:	be ff ff 00 00       	mov    $0xffff,%esi
  4009d4:	bf 01 00 00 00       	mov    $0x1,%edi
  4009d9:	e8 ad ff ff ff       	callq  40098b <_Z41__static_initialization_and_destruction_0ii>
  4009de:	5d                   	pop    %rbp
  4009df:	c3                   	retq   

00000000004009e0 <__libc_csu_init>:
__libc_csu_init():
  4009e0:	48 89 6c 24 d8       	mov    %rbp,-0x28(%rsp)
  4009e5:	4c 89 64 24 e0       	mov    %r12,-0x20(%rsp)
  4009ea:	48 8d 2d 07 04 20 00 	lea    0x200407(%rip),%rbp        # 600df8 <__init_array_end>
  4009f1:	4c 8d 25 f8 03 20 00 	lea    0x2003f8(%rip),%r12        # 600df0 <__init_array_start>
  4009f8:	48 89 5c 24 d0       	mov    %rbx,-0x30(%rsp)
  4009fd:	4c 89 6c 24 e8       	mov    %r13,-0x18(%rsp)
  400a02:	4c 89 74 24 f0       	mov    %r14,-0x10(%rsp)
  400a07:	4c 89 7c 24 f8       	mov    %r15,-0x8(%rsp)
  400a0c:	48 83 ec 38          	sub    $0x38,%rsp
  400a10:	4c 29 e5             	sub    %r12,%rbp
  400a13:	41 89 ff             	mov    %edi,%r15d
  400a16:	49 89 f6             	mov    %rsi,%r14
  400a19:	48 c1 fd 03          	sar    $0x3,%rbp
  400a1d:	49 89 d5             	mov    %rdx,%r13
  400a20:	31 db                	xor    %ebx,%ebx
  400a22:	e8 d1 fc ff ff       	callq  4006f8 <_init>
  400a27:	48 85 ed             	test   %rbp,%rbp
  400a2a:	74 1a                	je     400a46 <__libc_csu_init+0x66>
  400a2c:	0f 1f 40 00          	nopl   0x0(%rax)
  400a30:	4c 89 ea             	mov    %r13,%rdx
  400a33:	4c 89 f6             	mov    %r14,%rsi
  400a36:	44 89 ff             	mov    %r15d,%edi
  400a39:	41 ff 14 dc          	callq  *(%r12,%rbx,8)
  400a3d:	48 83 c3 01          	add    $0x1,%rbx
  400a41:	48 39 eb             	cmp    %rbp,%rbx
  400a44:	75 ea                	jne    400a30 <__libc_csu_init+0x50>
  400a46:	48 8b 5c 24 08       	mov    0x8(%rsp),%rbx
  400a4b:	48 8b 6c 24 10       	mov    0x10(%rsp),%rbp
  400a50:	4c 8b 64 24 18       	mov    0x18(%rsp),%r12
  400a55:	4c 8b 6c 24 20       	mov    0x20(%rsp),%r13
  400a5a:	4c 8b 74 24 28       	mov    0x28(%rsp),%r14
  400a5f:	4c 8b 7c 24 30       	mov    0x30(%rsp),%r15
  400a64:	48 83 c4 38          	add    $0x38,%rsp
  400a68:	c3                   	retq   
  400a69:	0f 1f 80 00 00 00 00 	nopl   0x0(%rax)

0000000000400a70 <__libc_csu_fini>:
__libc_csu_fini():
  400a70:	f3 c3                	repz retq 
  400a72:	90                   	nop
  400a73:	90                   	nop
  400a74:	90                   	nop
  400a75:	90                   	nop
  400a76:	90                   	nop
  400a77:	90                   	nop
  400a78:	90                   	nop
  400a79:	90                   	nop
  400a7a:	90                   	nop
  400a7b:	90                   	nop
  400a7c:	90                   	nop
  400a7d:	90                   	nop
  400a7e:	90                   	nop
  400a7f:	90                   	nop

0000000000400a80 <__do_global_ctors_aux>:
__do_global_ctors_aux():
  400a80:	55                   	push   %rbp
  400a81:	48 89 e5             	mov    %rsp,%rbp
  400a84:	53                   	push   %rbx
  400a85:	48 83 ec 08          	sub    $0x8,%rsp
  400a89:	48 8b 05 68 03 20 00 	mov    0x200368(%rip),%rax        # 600df8 <__init_array_end>
  400a90:	48 83 f8 ff          	cmp    $0xffffffffffffffff,%rax
  400a94:	74 19                	je     400aaf <__do_global_ctors_aux+0x2f>
  400a96:	bb f8 0d 60 00       	mov    $0x600df8,%ebx
  400a9b:	0f 1f 44 00 00       	nopl   0x0(%rax,%rax,1)
  400aa0:	48 83 eb 08          	sub    $0x8,%rbx
  400aa4:	ff d0                	callq  *%rax
  400aa6:	48 8b 03             	mov    (%rbx),%rax
  400aa9:	48 83 f8 ff          	cmp    $0xffffffffffffffff,%rax
  400aad:	75 f1                	jne    400aa0 <__do_global_ctors_aux+0x20>
  400aaf:	48 83 c4 08          	add    $0x8,%rsp
  400ab3:	5b                   	pop    %rbx
  400ab4:	5d                   	pop    %rbp
  400ab5:	c3                   	retq   
  400ab6:	90                   	nop
  400ab7:	90                   	nop

Disassembly of section .fini:

0000000000400ab8 <_fini>:
_fini():
  400ab8:	48 83 ec 08          	sub    $0x8,%rsp
  400abc:	e8 4f fd ff ff       	callq  400810 <__do_global_dtors_aux>
  400ac1:	48 83 c4 08          	add    $0x8,%rsp
  400ac5:	c3                   	retq   
